c__builtin__
set
p0
((lp1
Vmlacedog
p2
aVGetIITJEE
p3
aVizenku
p4
aVVHSRedbirdsGO
p5
aVKaranPatel0008
p6
aVkatknight
p7
aVsparklebliss
p8
aVfelix_felicis92
p9
aV6328Shaksa
p10
aVlaura_garga
p11
aVmmmaddie
p12
aVBarb_M_Louthan
p13
aVIITDBGroup
p14
aVStartupUChicago
p15
aVLucia_RS
p16
aVCircle_West
p17
aVneerajpkamath
p18
aVChicagoBlueSky
p19
aVchadly1000
p20
aVkamlesh7252
p21
aVharsh_khadgawat
p22
aVDigGraphSol
p23
aVnandkri
p24
aVazullah
p25
aVsonrisassmiles
p26
aVmechellesays
p27
aVthineownthought
p28
aVEdgardoValle1
p29
aVRajatMa45718129
p30
aVEdUSACanada
p31
aVjeremygentile
p32
aVsewing3
p33
aVDanielBekkouche
p34
aVRAJUPVKS
p35
aVJordanW36886577
p36
aVjames_hilliard
p37
aVBridgeportBA
p38
aVteenyroni
p39
aVHarshManiar2
p40
aVshalzmisra
p41
aVburakpilavci
p42
aVbahulkumar82
p43
aVnrk8286
p44
aVsamar_reis
p45
aVCenterCourtLN
p46
aVAmandusLion
p47
aVMaryDjurovic
p48
aVPaulaH7
p49
aVcarleymarieh
p50
aVdiv2494
p51
aVGus_Pinzon
p52
aVgo_teego
p53
aVravikishore247
p54
aVprash_morkonda
p55
aVBaselTarabishi
p56
aVmikenow
p57
aVzahasdisciple
p58
aVITAbuzz
p59
aVbeccabot11
p60
aVtendolife
p61
aVsegaldesign
p62
aVtay9_4
p63
aVosakhniuk
p64
aVPeterShebelski
p65
aVLJ1996
p66
aVSafeandAware
p67
aVRicMutum
p68
aVACTstudyintheUS
p69
aVakj_stud
p70
aVPandenick
p71
aVwhyagog
p72
aVcoolmuthukumar
p73
aVosamabinharoon
p74
aVbg_kenZ
p75
aVPatrickOBarnes
p76
aVBriannaBussell
p77
aVAdamDStribling
p78
aVHazeliit
p79
aVDakota_Herman
p80
aVBshavel
p81
aVisamar1027
p82
aVseahawk111111
p83
aVYUNinCHICAGO
p84
aVChiCityColleges
p85
aVnadeemkansari
p86
aVdeepak_human
p87
aVjkchilds
p88
aVyashwantpatida8
p89
aVJobberPark
p90
aVwobbles88
p91
aVBerkeleyBrett
p92
aVBSU_IIT
p93
aVVanderCook
p94
aVanilkum24146882
p95
aVMalagaCAD
p96
aVmmsalameh
p97
aVTheClockNewscom
p98
aVhoneydipt911y3
p99
aVmomcboos
p100
aVJameelaJafri
p101
aVStuffedKulcha
p102
aVPureEngineerLLC
p103
aVUFarmIIT
p104
aVSumitkr555Sk
p105
aVNellysecho
p106
aVvsingh1802
p107
aVShreyaa3
p108
aViitstudyabroad
p109
aVgeniusdilip
p110
aVKellieAFields
p111
aVKateGronstal
p112
aVjeff_hallenbeck
p113
aVABUNASAR19
p114
aVRealsta_Ltd
p115
aVnrusty
p116
aVchgltd
p117
aVSBDinformation
p118
aVsubham_iitk
p119
aVBGathman21
p120
aVtarunsharma8501
p121
aVozziemeza1
p122
aVPanos_Bakos
p123
aVjlukechitwood
p124
aV3db2311adff24c9
p125
aVpamelamoi128
p126
aVGOTO2040
p127
aVsaurabh81432866
p128
aVUjjwal_Mukherje
p129
aVTechkosmos13
p130
aVkumar_nem
p131
aValvaromanero
p132
aVimAvniAAP
p133
aVBryantAXS
p134
aVahmed_gayel
p135
aVmycollegeguide
p136
aVyzheng47
p137
aVTeeWaterPark
p138
aVdan_lpd
p139
aVSayakMandal
p140
aVTescaTech
p141
aVkush373
p142
aVGTawari
p143
aVccacci60
p144
aViitiimatrimony1
p145
aVamulindian
p146
aVIAmWillSyvongsa
p147
aVSundusBasheer
p148
aVberlynow
p149
aVVg123789Gupta
p150
aVgoyalehari
p151
aVcoolmovado
p152
aVEleaven
p153
aVstudio_sally
p154
aVdmanish989
p155
aVACNbyYM
p156
aVwalkthruwater
p157
aVVMAT87
p158
aVBragadeesh153
p159
aVTyedyeSpence
p160
aVlorymishra
p161
aVrsinfotech2
p162
aVjfklimek
p163
aVrtl_company
p164
aVdbild
p165
aVpaladitya304
p166
aVkiranoo78
p167
aVfoodsafety4u
p168
aVPTeducation
p169
aVOdebrechtAward
p170
aVLightMetalAge
p171
aVandrew0writer
p172
aVramachandra1111
p173
aVdiipiii
p174
aVayush_2196
p175
aVMrcheese24
p176
aVchris80628612
p177
aVunitedscrap
p178
aVTHISONESA______
p179
aVCHIbizexpo
p180
aVzbhoy
p181
aVNCAC1
p182
aVJyothi_tummala
p183
aVCACoalition
p184
aVGOVINDJ13381598
p185
aViit_ifsh
p186
aVITwithSAMG
p187
aVbrett_freebird
p188
aVMudassirAli2802
p189
aVZrobertRus
p190
aVkahiggins
p191
aVGrantKlinzman
p192
aVmariachaure
p193
aVEasyTurf
p194
aVJithuJitu
p195
aVDsTigerheart
p196
aVEAA_Chicago
p197
aVjagadishcheluri
p198
aVxgong8
p199
aVMaziarLn
p200
aVmudit00077
p201
aVlokhande_rohit
p202
aVjonmjonm
p203
aVal_othaimeen
p204
aVCKLambdas
p205
aVAlNunez1890
p206
aVKaiyaOlsen
p207
aVmdfaizuddin15
p208
aVNBCahan
p209
aVShakirShumoil
p210
aVIITTennis
p211
aVApiee12
p212
aVRudyBalciunas
p213
aVGABYDancing
p214
aVtheRealPranay
p215
aVMortensonCareer
p216
aVJohnMunkWYG
p217
aV3d8768b4501c402
p218
aVangel_ss1
p219
aVkrishnakmr906
p220
aVdewdropdesigns
p221
aVarchitectsdb
p222
aVmuntaser_khan
p223
aVSthSideSarah638
p224
aVsubhash80329162
p225
aVGKChicago
p226
aVShermone
p227
aVLucianSun
p228
aVJeffreyCCarr
p229
aV_windrider_
p230
aVsvalenciaaa_
p231
aVBlock37Shops
p232
aVelango153
p233
aVkartik17goyal
p234
aVAldoValenciah
p235
aVmilton_bis
p236
aVNishitrajRaj
p237
aVfcheng2
p238
aVHalcyon_L
p239
aVjeneelovely
p240
aVEMONTES0213
p241
aVarnab06et
p242
aVExitTech
p243
aVakkundkiller
p244
aVyounglionFR
p245
aVjessefp
p246
aVTomMedCenterLMS
p247
aVIITGreekCouncil
p248
aVjaikedar
p249
aVHelixDC1
p250
aVCalabruzzisCafe
p251
aVzzning39
p252
aVt2_vicky
p253
aVIITDesign
p254
aVAGBellSchool
p255
aVeh_eh___
p256
aVGraceccee
p257
aVMom2RLL
p258
aVironypoisoning
p259
aVkyshiag
p260
aVsebek
p261
aVLinda1449
p262
aVAnkurGupta97
p263
aVararemuse
p264
aVbauerphilosophy
p265
aVGuo907
p266
aVYorkNan
p267
aVsaori_ooga
p268
aVCollegeInvent
p269
aVPereiraGinette
p270
aVTeefman
p271
aVkaushal19
p272
aVoskymoron
p273
aVskmaurya016
p274
aVGreen_Illinois
p275
aVlermtheworm
p276
aVprasana1999k
p277
aVeshafe70
p278
aVswetamona2013
p279
aVPamDarlingg
p280
aVnshss
p281
aV151258D
p282
aVSAGEScholars
p283
aVzup2u2
p284
aVmyedgeportal
p285
aVk_nonymous
p286
aVEduUSA_Sby
p287
aVyzfen89
p288
aVmycareeru
p289
aVabhittchamp
p290
aVCambMishra
p291
aVjain_vibhav
p292
aVpra18theek
p293
aVMikvaChallenge
p294
aVJiachengpark
p295
aVBUBLIVE
p296
aVClaireMerheg
p297
aVYongbo1
p298
aVANUJ44744641
p299
aVjulio1039
p300
aVsivasankar686
p301
aVclzhang2
p302
aVhensleyjo
p303
aVNvania
p304
aVtop10enggcolleg
p305
aVStephanieH131
p306
aVresearcharya
p307
aVscottwurst
p308
aVEbeth_thomas
p309
aVCirceLlanos
p310
aVupscscholars
p311
aVsmartkaushal1
p312
aVLakshya_being
p313
aVAdvancedCoolTx
p314
aVTriumphCIO
p315
aVsburiiali
p316
aVISTPLifeScience
p317
aVgalliverthe1st
p318
aVfilibe77
p319
aVnirmalpshah
p320
aVryan_tillman
p321
aVAlpha_Xi_IIT
p322
aVagnieszkasraz
p323
aVSTEMConnector
p324
aVkenilkpanchal
p325
aVtalksupri
p326
aVajaysareen76
p327
aVmppaul271
p328
aVMONEY4317
p329
aVIBMAnalytics
p330
aVChicagoBBB
p331
aVjwyushadow
p332
aVChicagolandCmbr
p333
aVashoksurana
p334
aVraheeshtripathi
p335
aVkundankumar091
p336
aVIITJEEPALAKKAD
p337
aVFastEntCareers
p338
aVzjaks23
p339
aV_Swannk
p340
aV130108021akr
p341
aVharishbala
p342
aViBIOPROPEL
p343
aVFactSetCareers
p344
aVjakoblich
p345
aVZ_R_A_N
p346
aVSUBRATACHOUDH11
p347
aV8083867533
p348
aVshaheddin786
p349
aVPBFeZ
p350
aVDSTCJunagadh
p351
aVCNSmakerfaire
p352
aVJBValPro
p353
aVhsattar1
p354
aVelmarok
p355
aVSpecialEventCo
p356
aVFatimaMendez_C
p357
aVSillymeCat
p358
aVtechspandan
p359
aVRyan_C_Miller
p360
aVparulalokmittal
p361
aVPrashantAttarde
p362
aVGCMHERC
p363
aVrishabh35276653
p364
aVcasio_willy
p365
aVLeesetomltm
p366
aVchirchaudhary97
p367
aVEcoSolarChi
p368
aVsisperdesign
p369
aVIIT_Crabs
p370
aVditschfitness
p371
aVewhite98
p372
aVallaboutblue20
p373
aVTCEalumniMadras
p374
aVStreetID
p375
aVShivamy39966353
p376
aVESMEsudria
p377
aVGreenMyDollar
p378
aVuversityinc
p379
aVIITASB
p380
aVsalmavich
p381
aVPandiyansiva
p382
aVPRASHANTH_prazi
p383
aVRealPoxdoc
p384
aVNYSID
p385
aVWSC_Scholars
p386
aVSteAmoroso
p387
aVinnoideators
p388
aVTheFinal60
p389
aViambandhan
p390
aVramkumartce
p391
aVWiTronix
p392
aVIllTechROTC
p393
aVHAWKEYE4500
p394
aVclaire_hzhang
p395
aVcyberdenton
p396
aVzlimp
p397
aVnbullsa
p398
aVCollegeBlender
p399
aVprince_de_usa
p400
aVBaselios94
p401
aVDBAUniversity
p402
aVsherali_iitr
p403
aVAkarshDuggirala
p404
aVnivetac
p405
aVkirstenlamkin
p406
aVRj33320
p407
aVRamzi_Riadi
p408
aVheathaplexvsn
p409
aVus_infotech
p410
aVDanKosm0
p411
aVGradSense
p412
aVAdmissionPro
p413
aVdmeves
p414
aVomidubey
p415
aVUSAENews
p416
aVrslooch1
p417
aVKapeelDaryani
p418
aVPayingForSchool
p419
aVkumar_viwaan
p420
aVTayebHyderally
p421
aVdrewberu
p422
aVsusanrubinsky
p423
aVVinodbondapalli
p424
aVprakhariitr
p425
aVdashingabhi0077
p426
aVrobteaches
p427
aVamwrkshp
p428
aVMohamma70730564
p429
aVKalabichMgmt
p430
aVRy_Guy__
p431
aVHertzlerD
p432
aVCarpenteBeatriz
p433
aVjuanlaulhe
p434
aVslynn001
p435
aVStratoStar4U
p436
aVmpektas
p437
aVnbismoi
p438
aVmishravijay687
p439
aVPiyushS2408
p440
aVHigherEdCompass
p441
aV100tomates
p442
aVstephenchristie
p443
aVjhui216
p444
aVaalayach
p445
aVpbuttswag
p446
aVkunalomizer
p447
aVAmyWDJobs
p448
aVnikhilaps
p449
aVTCCAHS
p450
aVabs_inc
p451
aVcollegeoptions
p452
aVJohnACrispino
p453
aVshopNAIT
p454
aVmai_prata
p455
aVyanxiang1011
p456
aVurbancrossway
p457
aVmanjunath384
p458
aVtscit
p459
aVedgar_becerril
p460
aVRossTLudwig
p461
aVParth_Kalaria
p462
aVKayDurbin
p463
aVsahill25
p464
aVbledeloc
p465
aVNWgradplus
p466
aVConnextbooks
p467
aVBaloonr
p468
aVpaniitalumni
p469
aVAsianAmBiz
p470
aVAndiGrab
p471
aVGManikrishna206
p472
aVsandeepkm1
p473
aVCape_Rabbit
p474
aVMojtaba82
p475
aVmarkacarroll
p476
aVknadrian
p477
aVAkshataKerur
p478
aVAmUrbanCampus
p479
aVRSACConference
p480
aVTinaSfon
p481
aVrichdom
p482
aVbauleer
p483
aVNagendrenK
p484
aVraanstermonster
p485
aVQueenofnoisElle
p486
aVMoonshiner17
p487
aVCalebHallgren
p488
aVSubwhalerville
p489
aVSOLIDWORKSedu
p490
aVNagendraKamathK
p491
aVNaina_Sarika
p492
aVmcmutim
p493
aVTheMichaelU
p494
aVmrkmllry
p495
aVIllinoisBedBug
p496
aVIIT_OneStopShop
p497
aVarios856
p498
aVTechFaq360
p499
aVOchoaDochoa3
p500
aVIIT_Science
p501
aVarriving
p502
aVRetroNeonNeko
p503
aVivyli1112
p504
aVDuluxStudyTour
p505
aVj64y
p506
aVtushargupta1301
p507
aVvineshgkannan
p508
aVpeter_mongillo
p509
aVsofiaghouse
p510
aVcengagegale
p511
aVCurtAllee
p512
aVNobleBSociety
p513
aVraheelgauba
p514
aVjasmine_zeng
p515
aVtalentwavehr
p516
aVjoeluciani
p517
aVchakkisthan
p518
aVArcitura
p519
aVYouelearning
p520
aVAdityaUdayKumar
p521
aVTamalDutt
p522
aVNelsonMRosario
p523
aVStylozAshish
p524
aVjtobiasson
p525
aVlt13jimmy
p526
aVMSPahwa
p527
aVjointcra
p528
aVpsahluwalia1
p529
aVExelon
p530
aVakumarpal
p531
aVMaryRiceNH
p532
aVArifKha61132349
p533
aVJsaxena16
p534
aVSLDS_IIT
p535
aVbaosong0626
p536
aVmylife__2015
p537
aVjovanamayol257
p538
aVSproutSocial
p539
aVEaglePhotonics
p540
aVHeliosAvocats
p541
aVKWiersbe
p542
aVPhilipBrierley
p543
aVrohansapkal5
p544
aVpabitraofficial
p545
aVprakashjayswal5
p546
aVaruntayal1
p547
aVStaraMatrix
p548
aVYoungMathGenius
p549
aVATPractiseSkool
p550
aVUGRADEuCA
p551
aVLSMCE2013
p552
aVmudittech
p553
aVSurenderGoyal92
p554
aVrajaavishekkuma
p555
aVranjandsgpt
p556
aVJeli_1993
p557
aVshashwat_kunal
p558
aVEloiBarti
p559
aVsimoncarlo4
p560
aVCloudeeva
p561
aVOnyungK
p562
aVIITcampusTVs
p563
aVPSU_History
p564
aVBIOConvention
p565
aVGnoriega05
p566
aVNACUBO
p567
aVedrbiz
p568
aVemeierpsg
p569
aVNagendrachauh10
p570
aVsomya_jyotishi
p571
aVbuiltworlds
p572
aVEddieSell
p573
aVdrsarahsviews
p574
aVgupta_rish5804
p575
aVGreenSmart
p576
aVshubhamgheek407
p577
aVajouneh
p578
aVMcAuleyMacs
p579
aVGauravverma1994
p580
aVDiscountPP
p581
aVavaob
p582
aVAnanyakirti
p583
aVJamesJPanek
p584
aVPromoversity
p585
aVFergmnz
p586
aVChandanhn
p587
aVMarcusMalesh
p588
aV419pankaj
p589
aVGolakiyaSandip
p590
aVraaz_shivesh
p591
aVJay_Nina
p592
aVjsb1271
p593
aVMicrochipTechHR
p594
aVwriteforscope
p595
aVmakeyourrules
p596
aVPriorclaveNA
p597
aVJonSpathelf
p598
aVMr_JaYtanG
p599
aVBrodalumab
p600
aVPower_Construct
p601
aVlisa_raney
p602
aVinairs
p603
aVtayemise
p604
aVpoojan_shah20
p605
aVBiolaEV
p606
aVp85709794
p607
aVeducationusanz
p608
aVRoboticslady
p609
aVrahulkumar91227
p610
aVSpartonNavEx
p611
aVCreativePhysics
p612
aVFitAndFair
p613
aVTakeIELTS1
p614
aVGlenn_Fellows
p615
aVPletscherRobert
p616
aVMartyMobile
p617
aVPrincessNOI
p618
aVYash1206
p619
aVjedimastergwen
p620
aVScholarAmit
p621
aVLukeylor
p622
aVProfCharlesHaas
p623
aVChandan51147456
p624
aVyonghauboo
p625
aVSh_Bahramirad
p626
aVmagigiya1
p627
aVJosiahDavidson
p628
aVStudydotcom
p629
aVIamSaleeq
p630
aVdeloach7kw
p631
aVkraziyanto
p632
aVneiltv
p633
aVCKNicoleV
p634
aVvikashjaiswal31
p635
aVDomu_ReBORN
p636
aVjeetsarbo
p637
aVSeadogNavyPier
p638
aVxyf1013
p639
aVcampusTexting
p640
aVVivekBalendu
p641
aVthomas_donna
p642
aVruizustc
p643
aVscbyftbll
p644
aVjordanbelch
p645
aViithmicro
p646
aVGlobalbusmag
p647
aV2013SAGA
p648
aVhimanshukhtr
p649
aVWEDanceVirginia
p650
aVSeleniasis
p651
aVPatCBlue42
p652
aVkloman92
p653
aVMTULode
p654
aVNeroTBM
p655
aVranchhod_k
p656
aVDKMoriarty
p657
aVzer0energy
p658
aVJenBertoglio
p659
aVAdelmansCo
p660
aVPrincipalStrawn
p661
aVtanych5233
p662
aVMr_A_Hacker
p663
aVmoyniec
p664
aVboutehh
p665
aVaheadAI
p666
aVfrebrezo
p667
aVkctsui
p668
aVMaSumm
p669
aVjfobilson
p670
aVelnazem
p671
aVTheRescueBook
p672
aVujjwalsharma191
p673
aVTalyPolishchuk
p674
aV8Katalyst8
p675
aV703fa5c860434ef
p676
aVMksingh23
p677
aVmkcapital
p678
aViMukeshK
p679
aVnaveeniit
p680
aVneildkane
p681
aVAldermanSolis
p682
aVkhaenicke
p683
aVlearning_pt
p684
aVchris__ulrich
p685
aVAccretive_Jobs
p686
aVDonPeloquin
p687
aVBrotherRice
p688
aV101grads
p689
aV_thistlepetals
p690
aVCKFacultyBlog
p691
aVsneakatone
p692
aVaditya123k
p693
aVWhyteHe
p694
aVHermes000000001
p695
aVaprabha1
p696
aVLeen_AlZaibak
p697
aVATchendo
p698
aVlavendermeng
p699
aVboob_cube
p700
aVEagle1Capital
p701
aVcasanovamemo
p702
aVPoetryAssessor
p703
aVCientificaLtd
p704
aVLKulla2
p705
aVSteveBetza
p706
aVCloud2SME
p707
aVAres_Conan
p708
aVCubehubInc
p709
aVVITSOL
p710
aVHaEunPang
p711
aVtmblweed
p712
aVxq8x2012
p713
aVMaqboolZahid
p714
aVU_For_Life
p715
aVbirdinair
p716
aVRodina_22
p717
aVceoshea773
p718
aVprathameshujad1
p719
aVUChiEngagement
p720
aVChicagoLine
p721
aVvivekee99
p722
aVjsalam
p723
aVbriankibbe
p724
aVujjaldas132
p725
aVreclusiveIndian
p726
aVTEDxCMA
p727
aVLarsonBevruth1
p728
aVAritra03
p729
aVAzugaCareers
p730
aVBPT_Recruiting
p731
aVCMEGroup
p732
aVWebsEdge_Edu
p733
aVKumarKrneelu
p734
aVSumitkumarshah3
p735
aVAvinashSarohi
p736
aVxgspci001
p737
aVBJ_IllinoisTech
p738
aVramsraees
p739
aVeducationonclk
p740
aVOptimaChiCtr
p741
aValantieng
p742
aVYosisM
p743
aVNationalEd
p744
aVanandbalaji
p745
aVKAEHope
p746
aVbanoonoo
p747
aVjnymarch
p748
aVSougata1986
p749
aVgquella
p750
aVAshutosh_5
p751
aVjinliang1202
p752
aVyazeze
p753
aVAGIEducation
p754
aVandangle89
p755
aVabdulchsm
p756
aVschoenig
p757
aVUnivNEWS
p758
aVChumanKumar2
p759
aVEngineers_pk
p760
aVhealthcareILN
p761
aVnestle_kelly
p762
aVNickZikas
p763
aViitunionboard
p764
aVIam_SVC
p765
aVsomamohapatra
p766
aVAIMBiomedical
p767
aVUTexasPress
p768
aVAnti_PVP
p769
aVRoseBeauchamp
p770
aVkelshwilson
p771
aVPapa_Bear_ASP
p772
aVchunhui_iit
p773
aVAnkit2177
p774
aVdatascifellows
p775
aVRose_Zamora
p776
aVGuillermoZProus
p777
aVhillgrp
p778
aVAnkitya18731585
p779
aVBRATBOY_DEEPAK
p780
aVmcarpiod
p781
aVskromine
p782
aVmwargel
p783
aVRazanDamlakhi
p784
aV9soumen
p785
aVsatish_rules
p786
aVHergeBris
p787
aVJobsiit
p788
aVranjeet84151524
p789
aVrandhawaa
p790
aVArthurluo
p791
aVBhnaina
p792
aVpawank58pawan
p793
aVDuthGuru
p794
aVShriRamanujam
p795
aVbvatsalya
p796
aVThePrincetonRev
p797
aVAPSChicago
p798
aVGLOBEProgram
p799
aVfisher0255
p800
aVmod_abo_hashish
p801
aVYoetD
p802
aVroshernetwork
p803
aVKrauseko
p804
aVAndrewWSharp
p805
aVManjulePrashant
p806
aVaykthenike
p807
aVMobileXChi
p808
aVvinod8dav
p809
aVSimpleRelevance
p810
aVAnnexCapital
p811
aVebudzynski
p812
aVNightfireuk_007
p813
aVcyuan5
p814
aVkyleteachman
p815
aVRyan_E
p816
aVGreeley_Hansen
p817
aVNSBE_IIT
p818
aVRocket__Dan
p819
aVrogersuch
p820
aVPHATenergy1
p821
aVcollegecanteen
p822
aVKoji_Bjerke
p823
aVrotmandesign
p824
aVKyle___Gray
p825
aVWilliamsAC1981
p826
aVadmford
p827
aVWenxunMu
p828
aVadi_mishra93
p829
aVThymeling
p830
aVIITCommunity
p831
aVEHSNYC
p832
aVsicong_ma
p833
aVajaffurs
p834
aVBSAAIA
p835
aVwaubonsee
p836
aVPSICareers
p837
aVSilvrgrrl
p838
aVRuyinYang
p839
aVSaleemaFw
p840
aVGreenCollarVet
p841
aVIITSOAR_Asbel
p842
aVjeaniewilson81
p843
aVmjfleck34
p844
aVRajVishnani
p845
aVCollegeVira
p846
aVmnit_shubham
p847
aVamilladesign
p848
aVSallotThomas
p849
aVRestroomAlert
p850
aVShubham84078489
p851
aVviveksahabadi
p852
aVpb4good
p853
aVUrickYu
p854
aVMeredithAllenIL
p855
aVHotel_Aura
p856
aVSamsonAtlantic
p857
aVHarWoog
p858
aVIIT_Dining
p859
aVPeaceCorps_MW
p860
aViitscholars
p861
aVkgreg06
p862
aVMrLinhartTweets
p863
aVyuriabrito
p864
aVsathishzx
p865
aVepsiloner
p866
aVOccupyIIT
p867
aVbabaBC
p868
aVMJK60631
p869
aVbhammer5
p870
aVTusharPamul
p871
aVthomasbabu5
p872
aVIngenious4gate
p873
aVvbgoz
p874
aVOceanLilyrose
p875
aVpullurinaveen22
p876
aVCenterInnovate
p877
aVvishnukanna94
p878
aVshekhar10c
p879
aVjebus_m10
p880
aVUniSmartEnergy
p881
aVDEOonline
p882
aVT_SCHUG
p883
aVTapio_Jokinen
p884
aVUSA_Education
p885
aVthecareercloset
p886
aVMBHB
p887
aVSandro_Mazzini
p888
aValexandreuribe
p889
aVIIT_CRABLab
p890
aVJ4111R0
p891
aVyub11n
p892
aVFundacionHertel
p893
aVAreteUChicago
p894
aVTeeIrish
p895
aVBlackThisWeek
p896
aVGuri27842
p897
aVazwilcox5
p898
aVECECharge
p899
aVHowingsit
p900
aVsaktim
p901
aVCementley
p902
aVbevins
p903
aVaffiniscape
p904
aVandyj1324
p905
aVlizzardwolt7
p906
aVASHISHNanobeach
p907
aVMeowCat0907
p908
aVCommuniversity
p909
aVyuweihui2
p910
aVSanchitaRaina
p911
aVAtulAtul909
p912
aVBes_III
p913
aValcoHorlicKs
p914
aVericlinchao
p915
aVcapellaventures
p916
aVprashan99821426
p917
aVhks_himanshu
p918
aVHare_Krishna108
p919
aVYourNN
p920
aVcccusi
p921
aVmarymac60
p922
aVMarinaGreen
p923
aVLeaders_of_Tomo
p924
aVAmyLovesSC
p925
aVEarthHourIL
p926
aVjewelersmachin2
p927
aVtanmaygole
p928
aVKytola
p929
aVRogerUAG
p930
aVChi_Humanities
p931
aVsagarmred
p932
aVStudyAbroadGR
p933
aVsnlpatel
p934
aVCoderDojoIA
p935
aVGATECounsellor
p936
aVResunate
p937
aVmishra_pradip
p938
aVrubenchu90
p939
aVdigitalseth
p940
aVParisofAmerica
p941
aVfullstackkertz
p942
aVIntercamino
p943
aVbankolli
p944
aVpushkarvaishna5
p945
aVerudiz
p946
aVtaydre
p947
aVshivam10139
p948
aVChaseICS
p949
aVCameronToth
p950
aVOKCarter
p951
aViit_harish
p952
aVBobMello
p953
aVade_rianna
p954
aVUjaszuk
p955
aVgabriel_sasha
p956
aVShe4SG
p957
aVrahu_1995
p958
aVConceptSchools
p959
aVkyoxsy
p960
aVSaMpmuthusamy3
p961
aV0BrunoPereira
p962
aVsavyasachijsr
p963
aVNickiSarah1
p964
aVwiesbro_5
p965
aVktMINEglobal
p966
aVaswinachuthan
p967
aVendritgr
p968
aVparayno
p969
aVPhatakRutesh
p970
aVghante_com
p971
aVjake____lane
p972
aV_Sahil7
p973
aValecthornton
p974
aVAlchemyPolymers
p975
aVtruellc
p976
aVbikespoke
p977
aVcs8397
p978
aVClasshw
p979
aVmgarcia810
p980
aVSwapneshPatra
p981
aVLStreetC
p982
aVepenzeymoog
p983
aVsagaashaan
p984
aVliuyi810
p985
aVphilippannenko
p986
aVIITDiversity
p987
aVprabhuchemics
p988
aVwoodburnpress
p989
aVjbguberman
p990
aVSPS_WIRE
p991
aVBDPAChicago
p992
aVbsans_
p993
aVADMakeyev
p994
aVTheDraftery
p995
aVsalmans_khan
p996
aVencomium_15
p997
aVbhargav_ram555
p998
aVpatcassata
p999
aVkeirobeara
p1000
aVtatramtn
p1001
aVKrishAnbhArDw17
p1002
aVzhlm2000
p1003
aVtejasytl
p1004
aVSahilMessi3
p1005
aVhjcopeland
p1006
aVitsso_right
p1007
aVGabeSalazar
p1008
aVDigIITalArchFab
p1009
aVR4Services
p1010
aVxuyn2193466
p1011
aVcarolinaalme1
p1012
aVNamrataHegde
p1013
aVlnwolfe
p1014
aVsoubhik_maji
p1015
aValertuhq
p1016
aVamber_deokate
p1017
aVarmaan4ru
p1018
aVcore_ce
p1019
aVdoscareers
p1020
aVmirandajunjun
p1021
aVgurpreet_talwar
p1022
aVGradTree
p1023
aVgoodloeleslie
p1024
aVIITSHWC
p1025
aVmsichicago
p1026
aVrahul53108441
p1027
aVcdara8
p1028
aVChiBusiness
p1029
aVtedescogina
p1030
aVxtremeboredem
p1031
aVrajankumarrai01
p1032
aVtripathi_pari
p1033
aVmietvinisha
p1034
aVKNaglich
p1035
aVlexanilopes
p1036
aV465811466
p1037
aVzhuzhenglong
p1038
aVBradStrandquist
p1039
aVEng_Salkini
p1040
aVNMHMChicago
p1041
aVusaBritish
p1042
aVandangle
p1043
aVdateIITians
p1044
aVxmslient
p1045
aVCorcentric
p1046
aVminerva_jb
p1047
aVCampusTVs
p1048
aVPear_says
p1049
aVyachenliu
p1050
aVjimabbott72
p1051
aVElvisreyes99
p1052
aVWMULUAN
p1053
aVDominitrice
p1054
aVAnjanaRao1
p1055
aVpinkeshkumar171
p1056
aVlachaiah
p1057
aVRSysun
p1058
aVbklyn_miss
p1059
aVeduhubindia
p1060
aVDnielBrin52
p1061
aVChennakeshav555
p1062
aVMeetasengupta
p1063
aVRAJEEVRAJ9905
p1064
aVconmergence
p1065
aVHaotian333
p1066
aVMilind8055
p1067
aVVikyZulfikar1
p1068
aVApnaCVdotcom
p1069
aVDemBaybaykids
p1070
aVRadillencejobs
p1071
aVSudeepKSatpathy
p1072
aVdheerajkumar009
p1073
aVDheerajracha99
p1074
aVCTBUH
p1075
aVanky_sharma005
p1076
aVDaffronAssoc
p1077
aV1920samarth82
p1078
aVhcfdz
p1079
aVLatinoNetworks
p1080
aVUAstudentgov
p1081
aVFleetmatics_HR
p1082
aVfakhourihaddad
p1083
aVsonicasmith1
p1084
aVjpalmer02
p1085
aVShengHaoKoo
p1086
aVbycaseycora
p1087
aVIITUGadmission
p1088
aVmanbir_soni
p1089
aVvasantdeodhar99
p1090
aVAccessToCapital
p1091
aVJoannaJmarti50
p1092
aVbtrautlein
p1093
aVsmartleydunn
p1094
aVcynthiay2012
p1095
aVreadyforce
p1096
aVJeanWestrick
p1097
aVcshrad
p1098
aVCurry_Williams
p1099
aVbiggestred1789
p1100
aVtoril7
p1101
aVWLimestall
p1102
aVclifguy
p1103
aVTMadzarevic
p1104
aVsparkyseattle
p1105
aVtuxecysuqi
p1106
aVMissouriSandT
p1107
aVDUCO89
p1108
aVDLSMeteors
p1109
aVshridharinfo
p1110
aVillinoistech
p1111
aVfdjett
p1112
aVNACME
p1113
aVeddygk
p1114
aVRyan_L1u
p1115
aVeddiewilliamsjr
p1116
aVdoctorkbsingh
p1117
aVMCAPrograms
p1118
aVRiteshK74241241
p1119
aVPurvag
p1120
aVGDFSUEZEnergy
p1121
aVMECOPower
p1122
aVjjvannorman
p1123
aVErdas_mech_eng
p1124
aVmeganheckel
p1125
aVCorkFloor
p1126
aVSouravmahapatr9
p1127
aVfracjackmac
p1128
aVana_k_h
p1129
aVdothedoable
p1130
aVvipuldh
p1131
aVrishbme33
p1132
aVCBeluska
p1133
aVanbanmta
p1134
aVlhuang89
p1135
aVJRin3words
p1136
aVVerdaeGroupLLC
p1137
aVJakeDrozdowski
p1138
aVrhitsha
p1139
aVScience_Break
p1140
aVtianyuebeiwei
p1141
aVChicagoMPI
p1142
aVDuSableMuseum
p1143
aVIMGTechnologies
p1144
aVBowmanBarrett
p1145
aVCarlllaDeee
p1146
aVNick_frCh
p1147
aVcvparrot
p1148
aVessencemaster23
p1149
aVkougkas
p1150
aVintm_iit
p1151
aVPHLOYtweets
p1152
aVGSlinkColombia
p1153
aVIIT_guwahati
p1154
aVEricWeixuYang
p1155
aVStepcone2K13
p1156
aVmoeasfour_1
p1157
aVSivaselvanT
p1158
aVPolishedPebbles
p1159
aVashyBalboA
p1160
aVTechnavio
p1161
aVHuKexin
p1162
aVsahuuttam0
p1163
aVjason_gaoh
p1164
aVWalesInAmerica
p1165
aVMashBash_UofI
p1166
aVdavids_fourfold
p1167
aVtabishraza0901
p1168
aVJDF
p1169
aVgjpalathingal
p1170
aValexdivis
p1171
aVayushjain24xd
p1172
aVlijojoy8
p1173
aViitcandycampus
p1174
aVmiina0207
p1175
aVluna_jody
p1176
aVInternationalUL
p1177
aVinfo_sahil
p1178
aVYaHui_Li
p1179
aVVictoria4vakv
p1180
aVSudiptaWww
p1181
aVtwitophobian
p1182
aVMasroorGilani
p1183
aVBdsans
p1184
aVShaun_Xi
p1185
aVashubhargave
p1186
aVgiselemack
p1187
aVnext_bncnews
p1188
aVCareerOrbits
p1189
aVcomputational
p1190
aVJorMorsoxsrule
p1191
aVmrigank_korpal
p1192
aVkwaterlooart
p1193
aVmrinal1997
p1194
aVdchristianson2
p1195
aVkyronGlobal
p1196
aVK_I_S_H_O_R
p1197
aVTeresaPappas
p1198
aVEngageCivil
p1199
aVlihanzhi129
p1200
aVcucpokdn
p1201
aVICO_Optometry
p1202
aVMBaudler
p1203
aVGetReplaced
p1204
aVmwerbo2
p1205
aVAfzalah48195490
p1206
aVkingofallbooks
p1207
aVfourtwelve412
p1208
aVharvinder0494
p1209
aVtheodoregao
p1210
aVvpy143
p1211
aVShellyDutler
p1212
aVsumanasunda
p1213
aVlegal_lease
p1214
aVheloisamouraphd
p1215
aViitAIAS
p1216
aVdcobbins6
p1217
aVlaurammtez
p1218
aVInceptia
p1219
aVddoshi4
p1220
aVBhowmikRicha
p1221
aVSpikeHilton
p1222
aVhistory_mrb
p1223
aVtalk2pankajroy
p1224
aVbeyesus
p1225
aVSHAIK_ZEELANI
p1226
aVChandramouli_C
p1227
aVjs_howard
p1228
aVjanetj_IIT
p1229
aVIAarchitects
p1230
aVthat_guy_412
p1231
aVDulc3R30
p1232
aVjuanitag
p1233
aVAnthonyMSE
p1234
aVakayugin
p1235
aV_Florita_
p1236
aVNandiniSwami2
p1237
aVbombaywraps
p1238
aVPromiseforHaiti
p1239
aVmmccune
p1240
aVStBenGuidance
p1241
aVMiller_psych
p1242
aVvivekdesigns
p1243
aVASTMStudentFans
p1244
aVIIT_SAT
p1245
aVShilaBorse
p1246
aVverymiriam
p1247
aVhowlandster
p1248
aVMikeBoehler
p1249
aVTrevorVossberg
p1250
aVMrHylander
p1251
aVBrianPByrne
p1252
aVRickyValdez
p1253
aVamitsanapala
p1254
aVPlatStaffJobs
p1255
aVIITPublicSafety
p1256
aVdarkoccult7
p1257
aVBinitaSahibabad
p1258
aVJielingLu
p1259
aVprachi_1a
p1260
aVNorthwesternMPD
p1261
aVfenixintl
p1262
aVSamahSallam
p1263
aVnkurpandey
p1264
aVEngineersGarage
p1265
aVKaplanGMATPrep
p1266
aVbarcacolts12
p1267
aVcarnotweets
p1268
aVtangw3138
p1269
aVAleksey_Basov
p1270
aVSBSDirectVote
p1271
aVkizimiistiyorum
p1272
aV6122312
p1273
aVperkinswill_CHI
p1274
aVssuryavijit
p1275
aViandisoftware
p1276
aVsingh7rishabh
p1277
aVMac330Pro
p1278
aVMemberClicks
p1279
aVcciAlumniGh
p1280
aVPiyush_creates
p1281
aVbikstud
p1282
aVm_dubs77
p1283
aVJacksper13
p1284
aVhutcht007
p1285
aVChuchobruzual
p1286
aVactonjm
p1287
aVyo_jane
p1288
aVMrResonance
p1289
aVmobileappex
p1290
aVHristoNenov
p1291
aVCadeCynthia
p1292
aVHits446
p1293
aVDanKasberger
p1294
aVSukhdev980
p1295
aVivelini
p1296
aVdesignerkd
p1297
aVAnshikaGovil
p1298
aVtelugueducation
p1299
aVkellymcmahon99
p1300
aVScience_Topics
p1301
aVBrett_A_Harris
p1302
aVIDPUSA
p1303
aVkellykos
p1304
aVSportingKC
p1305
aVPlugVolt
p1306
aVnet2chi
p1307
aV71pinto
p1308
aVMehul_Jakharia
p1309
aVFrancis09961623
p1310
aVfundinnovations
p1311
aVsauravk26989945
p1312
aVLittle_BG
p1313
aVapBadz
p1314
aVSiddharth_R
p1315
aVskyathome
p1316
aVriteshg_1987
p1317
aVChimpsInNappies
p1318
aVSiddhantPat
p1319
aVmedandrao
p1320
aVPEAKASH01
p1321
aVpathbreaktechie
p1322
aVperfectgenset
p1323
aVrajeev_upadhyay
p1324
aVChicagoCYC
p1325
aVUniLaGuajira
p1326
aVhatchvalleyco
p1327
aVStuartGrovescom
p1328
aVMaddy_Rai
p1329
aVM_MeeKee
p1330
aVJaisalgarh
p1331
aVSmarteys
p1332
aVstudio__silver
p1333
aVdpkdns
p1334
aVetp_rapgaroo
p1335
aVMaletiaS
p1336
aVcooper_conrad
p1337
aVhn5hn4
p1338
aVsuta1
p1339
aViwalliit
p1340
aVnagoorshareef23
p1341
aVavleenchadha
p1342
aVvundrukkd
p1343
aVJAIDEEPJoseph7
p1344
aVakshaybhagwani
p1345
aVcurbedchicago
p1346
aVRimaSukhadia
p1347
aVsororIITy
p1348
aVStudyous
p1349
aVGSPACHOURI
p1350
aVthinknewworks
p1351
aVvikuvikash
p1352
aVWATF_
p1353
aVabhi_khanna_30
p1354
aVmandy_work
p1355
aVnagmaparveenpk
p1356
aVNavyug_academy
p1357
aVCBAworks
p1358
aVmiranda2590
p1359
aVMarlaElitzer
p1360
aVchakri_online
p1361
aVParasDhawan10
p1362
aVBISHCMC_CUG
p1363
aVAashishU
p1364
aVsuccessgateway1
p1365
aVVasuAgarwal6
p1366
aVDeborahVyskocil
p1367
aVliuruiabc
p1368
aVSIUEnergy
p1369
aViitgreen
p1370
aVlifeoutdoors2
p1371
aVerdaltatares
p1372
aVchibullsfan4evr
p1373
aVsanjit555
p1374
aVnotfortourists
p1375
aVHrBeckon
p1376
aVssmyd
p1377
aVthssvkd
p1378
aVblackmoonibl
p1379
aVComplete_Degree
p1380
aVCR_MEENA
p1381
aVre_PHinisheD
p1382
aVpsiya344
p1383
aVShuklagreat
p1384
aVinsiderZedge
p1385
aVhussey244
p1386
aVAndreaHanis
p1387
aVMarcMdnd
p1388
aV3rdAndKyleLong
p1389
aVSamritiSachdeva
p1390
aVsonurao42
p1391
aVGlennArnoldFF
p1392
aVmanivannan10594
p1393
aVmiriamjill
p1394
aVpressbailey
p1395
aVbrianybk
p1396
aVjulfikkar1010
p1397
aVearthsaver10
p1398
aVTheStudio_UI
p1399
aVpolispaniard
p1400
aVilmionetwork
p1401
aVyaymini
p1402
aVamalinakudsi
p1403
aVOHCassessment
p1404
aVArielHendrick
p1405
aVebalderas
p1406
aVnrehan2009
p1407
aVVLSI_2012
p1408
aVnourachanful
p1409
aVCCcleanwater312
p1410
aVmaster_baby
p1411
aVBW_IllinoisTech
p1412
aVtierumasamunew8
p1413
aVjessginger
p1414
aVHA_Soraya
p1415
aViitentrepreneur
p1416
aVdujiachenlee
p1417
aVDonClip5
p1418
aVlovefengzhilei
p1419
aVChicagoREpro
p1420
aVchandeshwar2
p1421
aVsnopok
p1422
aVIITArchitecture
p1423
aVaveloroy
p1424
aVaskberry
p1425
aVTrustyDeal
p1426
aVSurbhiChauhan
p1427
aVChiTribLife
p1428
aVAddteqJobs
p1429
aVAdlerPlanet
p1430
aVdaliazygas
p1431
aVchandasmita_8
p1432
aVMalbroughR
p1433
aVjbthummar
p1434
aVDeep10026Deepak
p1435
aVabhirocksnow
p1436
aVJasonJJYh
p1437
aVPepEdi_Alvarado
p1438
aVinternship_desk
p1439
aVketanamin99
p1440
aVmah_assaf
p1441
aVDontSayOhWell
p1442
aVFayceTime
p1443
aVRBeeds
p1444
aVFunkychakra
p1445
aV_sauvemoi
p1446
aVjana19930918
p1447
aVkuztaf
p1448
aVvjaguidance
p1449
aVfeifeiyin
p1450
aVpsirk2
p1451
aVsiyingzh
p1452
aVkantamneni_s
p1453
aVAlex_Wentz
p1454
aVgoProjectTravel
p1455
aVMrFinneusFlogg
p1456
aVTheBestChicago
p1457
aVvismed3D
p1458
aVNekrojack
p1459
aVgretazola
p1460
aVich317
p1461
aVChrisShaver64
p1462
aVChicagoArchitec
p1463
aVTechEdO
p1464
aVRamjageer
p1465
aVpandeyalok195
p1466
aVchandrapalyadav
p1467
aVSenatorHunter
p1468
aVshaankh1997
p1469
aVPradeepkumar754
p1470
aVcarvtober
p1471
aVJeremyBecker38
p1472
aVGopalShekhawa
p1473
aVQueerTechClub
p1474
aVSahilChalke
p1475
aVindianjob
p1476
aVhaominnn
p1477
aVjheinz_57
p1478
aVratioformation
p1479
aVCityYearDC
p1480
aVdenizrimed
p1481
aVonthesafeside
p1482
aVOKWArchitects
p1483
aVhchong2
p1484
aVomnomhoshi
p1485
aVjudykratochvil
p1486
aVGanguRulz
p1487
aVedqueso
p1488
aVGermantees
p1489
aVIndieMechE
p1490
aVbhuvang9
p1491
aVIamAG_17
p1492
aVCMSA04
p1493
aVHOPprogram
p1494
aVsparmetuic
p1495
aVGBO_PMarch
p1496
aVNMajernik
p1497
aVCleanEnergyTrst
p1498
aVplugged_in
p1499
aVVaid3hi
p1500
aVlvalicenti
p1501
aVrox_myers
p1502
aVhemant426
p1503
aVnadia_igle_di
p1504
aVRitiksharma4240
p1505
aValumnijunction
p1506
aVSuvethasriN
p1507
aVsudipkarak
p1508
aVmocha12214
p1509
aVGKInitiative
p1510
aVKristen_Yang
p1511
aVsuperwurah
p1512
aVPICUonline
p1513
aVdesire_path_mkt
p1514
aVJ6060
p1515
aVJattPamma23
p1516
aVexlaine44
p1517
aVnamsss123
p1518
aVAltoChicago
p1519
aVdipendrakumary3
p1520
aVavilashC_95
p1521
aVBrill_Street
p1522
aVmethodfellow
p1523
aVhomefieldhunter
p1524
aVChicagoEvent
p1525
aVarvindbrfoc
p1526
aVrajveerkumat
p1527
aVaakashkumar3163
p1528
aVNabenduPorey
p1529
aVankitgupta0910
p1530
aVGradPsychology
p1531
aVpudiination
p1532
aVcm_ferrari3
p1533
aVDeepakshukla005
p1534
aVjuangui535
p1535
aVsuncccc
p1536
aVusabuildit
p1537
aVindustrial_tour
p1538
aVsaadyacop
p1539
aVEclaroTweets
p1540
aVN_K_V_K
p1541
aVlcy88920
p1542
aVKentLawSBA
p1543
aVSolarWerksllc
p1544
aVkavidahanayaka
p1545
aVYellowdotlizard
p1546
aVBibhashBarman2
p1547
aVDinkyShop
p1548
aVjoy4tech
p1549
aVBellevueU
p1550
aVSUSHANTKUMARS14
p1551
aVStopVirtuaStalk
p1552
aVakp4595
p1553
aVStudyAbroadcoin
p1554
aVishashankVERMA
p1555
aVgkdelhi8
p1556
aVonlyAbhiJ
p1557
aVpurnachndu
p1558
aVyogeshjshah
p1559
aVTwu28Wu
p1560
aVtouslesdeces
p1561
aVfelix_weigelt
p1562
aVPearsonSci
p1563
aVmuralim97510723
p1564
aVpxportill
p1565
aVnikki_does
p1566
aVRorySullivan
p1567
aVyadavAshish11
p1568
aVComposit_2013
p1569
aVliethyderabad
p1570
aViitsjm
p1571
aVjrnag2
p1572
aVvas_ashwin
p1573
aVcheesybrownie
p1574
aVSCTransferCtr
p1575
aVraer77
p1576
aVmeetsharmitha
p1577
aVMaximusMarq
p1578
aVSklmTown
p1579
aVravikalsia
p1580
aVED24group
p1581
aVklillehaugCPVA
p1582
aVPaigeGrons
p1583
aVNaveenprasant12
p1584
aVkadambinimishra
p1585
aVjscotheathman
p1586
aVOmNarkar
p1587
aViititm
p1588
aVnicolenetland
p1589
aVsteven630
p1590
aVCFLCruises
p1591
aVdynegy
p1592
aVIITFaculty
p1593
aVsnavendar
p1594
aVSweetY9876
p1595
aVDianePNC
p1596
aVARCHEWORKS
p1597
aVJoseHdzMX
p1598
aVJonathanWu1990
p1599
aVEdwardPurcell
p1600
aVrxqflora
p1601
aVMedChalfout
p1602
aVamrishyash
p1603
aVMtmurugan1
p1604
aVLinaAtBerkeley
p1605
aVpavangupta883
p1606
aVzorocareers
p1607
aVashitaprasad
p1608
aVAmMassMedia
p1609
aVfarrukhadnan1
p1610
aVAtuljai65707459
p1611
aVmontalvojc
p1612
aVSandeepanP
p1613
aVCMODisrupt
p1614
aVjeffaigner
p1615
aVpruthvi_nsrsr
p1616
aVadiltunca
p1617
aVMFAUpdates
p1618
aVVector_Functor
p1619
aVFPdGi
p1620
aVAlvaroDemiG
p1621
aVOLAS_HWC
p1622
aVeuropreneurs
p1623
aVpauleliat
p1624
aVAsiQuinn
p1625
aVArunYvi1
p1626
aVVadgamaChandni
p1627
aV1bdec72c2fee4d5
p1628
aVShaarif1
p1629
aVRajePrathamesh
p1630
aVWomenInSci
p1631
aVFustratedVishal
p1632
aVArmyRctg5A4M
p1633
aVSachinMohanpuri
p1634
aVpjrussell39
p1635
aVjdrix85
p1636
aVSCFJobs
p1637
aVSiskiyouCorp
p1638
aVsaif80755217
p1639
aVcrystalcao2013
p1640
aVlameri86
p1641
aVcrabbypinchy
p1642
aVGreenTieBall
p1643
aVlabib_theace
p1644
aVAfrazmoqueem82
p1645
aVdev_ramawat
p1646
aVrajendradeshm15
p1647
aVdrjpiitjee
p1648
aVHazardous06
p1649
aVILTAXILIMO
p1650
aVgauravs38648240
p1651
aV50DomainTools
p1652
aVadluru33
p1653
aVyjatin19
p1654
aVsamdavidson
p1655
aVshauryagarwal77
p1656
aVLanghamChicago
p1657
aVtonylaw7
p1658
aVrahulrao96
p1659
aVAymenAbdelrahma
p1660
aVTonyaJohnson208
p1661
aVAzimuthEnergy
p1662
aVRodVargasC
p1663
aVAakash_justrock
p1664
aVYang3221
p1665
aVraskardhanu
p1666
aVTina29520284
p1667
aVSravanthiSinha
p1668
aVanisoulk
p1669
aVadityat77682455
p1670
aVatomfission
p1671
aVand307
p1672
aVFNGIndia
p1673
aVEricTrinet
p1674
aVASASafterschool
p1675
aVrolleez
p1676
aVlorha_priya
p1677
aVmknippen
p1678
aVSwyftApp
p1679
aVkmatariyeh
p1680
aVhildathebigH
p1681
aVAValiav
p1682
aVnikola_micic
p1683
aVshantanutter
p1684
aVUK_1964
p1685
aVkulkarnirohit
p1686
aVmbargou1
p1687
aVjwngsar2012
p1688
aVbeatrizruiz09
p1689
aVpjmichaels83
p1690
aVmhminger
p1691
aVTrail2010
p1692
aVesiakavic
p1693
aVsahajmohit
p1694
aVLa_UPM
p1695
aVramreddy861
p1696
aVb17m4p
p1697
aV1b0bfb7be2514af
p1698
aVmel_hogan
p1699
aVpcipr
p1700
aVJuliaHsia
p1701
aVmbaskool
p1702
aVchaitanyamittu
p1703
aVcreateITfutures
p1704
aVKARTHEEK_IITK
p1705
aVapproachcheenu
p1706
aVStudents2Alumni
p1707
aVWorldChicago
p1708
aVArafatAhmed786
p1709
aVMI7Roy
p1710
aVSarahCaldicott
p1711
aVkapilchaurasia2
p1712
aVWrightCareerCen
p1713
aVtrebcocompsyst
p1714
aVGrahamAJohnson
p1715
aVTheNextMoveLLC
p1716
aVljbeltran
p1717
aVDobbsShow
p1718
aVTailorLofts
p1719
aVHESConsumer
p1720
aVJosh_T8
p1721
aVpaulhubinsky
p1722
aVGlobal_Expert
p1723
aVDominitriceG
p1724
aVjunapio
p1725
aVeringejuice
p1726
aVbhaveshjain
p1727
aVvikasme71445579
p1728
aVArt_in_the_City
p1729
aVOlgaMackiewicz
p1730
aVItsLittleLupe
p1731
aVkumaneesh
p1732
aVshreeshbhat
p1733
aVdanibocanegra_
p1734
aVsahilansari9734
p1735
aVHlfinfrock
p1736
aVmjamoom
p1737
aV2bikes1trailer
p1738
aVM_Meltz73
p1739
aVlucky_me424
p1740
aVtk_kmhr
p1741
aVPhilabaum
p1742
aVMiles_149
p1743
aViitipro
p1744
aVTesser5185
p1745
aVSunriseSLoanSvs
p1746
aVsongee0289
p1747
aVgatecoachingdel
p1748
aVLaecioNa
p1749
aVthefocusgate
p1750
aVrenttext
p1751
aVa730fd85ae0241b
p1752
aVragibzanwar
p1753
aVAdvEngineers
p1754
aVPARITOSH31YADAV
p1755
aVparul_gosain
p1756
aVrobbybeckman
p1757
aVOscarTobonJr
p1758
aVcleanelectric
p1759
aVMARUTICORPSALES
p1760
aVneerajguptaIITR
p1761
aVkurmiyashwant
p1762
aVar_indian
p1763
aVDTConsortium
p1764
aVAIASorg
p1765
aVjayashukla22
p1766
aVITFound
p1767
aVsandiaslam
p1768
aVAdiantaDOTorg
p1769
aVAmandaRocksLife
p1770
aViitheartbeat
p1771
aVLAofIL
p1772
aVUSA_Internship
p1773
aVDaisyCon3
p1774
aVmaria1013_
p1775
aVme_chris
p1776
aVEliziarioFreire
p1777
aVdhanrajkumar06
p1778
aVprayerismyjob
p1779
aVIsaGiannella
p1780
aVkrishnaarya456
p1781
aVkwiller
p1782
aVGateway_Green
p1783
aVgmariano88
p1784
aVSWChicago
p1785
aVCMARIN0
p1786
aVloverhun4457717
p1787
aVkashyap_kk91
p1788
aViitjeeWiziq
p1789
aVgauravphatak
p1790
aVAdityak93388098
p1791
aVabcdefg0755
p1792
aVtwtrubens
p1793
aVJianhua11
p1794
aVpalak
p1795
aVpmccain
p1796
aVmaddimarie95
p1797
aVLAZCareers
p1798
aVJameser42
p1799
aVriddhish_54
p1800
aViLoftus
p1801
aV4medanish
p1802
aVChrisMustain
p1803
aVCalamoureux
p1804
aVJohnLothian
p1805
aVsatkovskiene1
p1806
aVIITOL_Elliot
p1807
aVsanthos57722650
p1808
aVMattieGalgan
p1809
aVdavidycf
p1810
aVkumaran_12
p1811
aVsrinsesh
p1812
aVlaxmansuthar_94
p1813
aVgreggyb
p1814
aVemmacaroline23
p1815
aVaskiitians
p1816
aV543d72a9e4d6494
p1817
aVjaipakhre
p1818
aVCarlos_Roa007
p1819
aVRobertVanDame
p1820
aVForeLight
p1821
aVXueling_Li
p1822
aVLocovida2day
p1823
aVMoeAliwi
p1824
aVameenaleah
p1825
aVDamola2703
p1826
aVjmariehenson
p1827
aVNUCLEUSClas
p1828
aVranjanadeviiitb
p1829
aVAmandaMcD
p1830
aVAlexSmerch
p1831
aVVaibhav_Chou
p1832
aVlaumarba
p1833
aViimiitjobs
p1834
aVJuanGFayrenM
p1835
aVbooksandreports
p1836
aVreebu1
p1837
aVMotionPromos
p1838
aVGavhaleDeepak
p1839
aVxiaopei_zhang
p1840
aVharshithaa_
p1841
aVAngieGomez_
p1842
aVbsnlvipin
p1843
aVcmenghini
p1844
aVAftrSchoolMttrs
p1845
aVelvinmala
p1846
aVrm_xiss
p1847
aVbvsuhas
p1848
aVMikeDJohannsen
p1849
aVMauroLeos
p1850
aVrarahulchapra
p1851
aVIITsocsci
p1852
aVipi_official
p1853
aVUXacademy_es
p1854
aVbksandbks
p1855
aVsandeepvert
p1856
aVTheAmazingSatya
p1857
aVGCChicagoSummit
p1858
aVVPRSchook
p1859
aVthinkactlead_
p1860
aVyashrajlakra
p1861
aVJustWesNow
p1862
aVSt3v3Brady
p1863
aVTranguyen95
p1864
aVocagdas
p1865
aVNHEconomy
p1866
aVChangingWorlds1
p1867
aVDakshp16
p1868
aVKHANUMANTHU
p1869
aVTianyi_PAN
p1870
aVAroundParasols
p1871
aVnishanth73
p1872
aVkayburnett
p1873
aVtejkohli_
p1874
aVGeneCrozier
p1875
aVPhysicsSkyrik
p1876
aVmas_agussalim
p1877
aVIIT_INTM
p1878
aVavid_vani
p1879
aVKayAnuar
p1880
aVSongWang88
p1881
aVProfHimes
p1882
aVjtoprani
p1883
aVXuebinFan
p1884
aVLolaMindiola
p1885
aVinkomoon
p1886
aVcompasscollegec
p1887
aVOpusCareers
p1888
aVmr_aliabbas
p1889
aVmemgtian29
p1890
aVZiweiZheng
p1891
aVrohitgharde1
p1892
aVchicagocodecamp
p1893
aVIITFacilities
p1894
aVPeterHanik
p1895
aVmaomaoyulin
p1896
aVcharles_chenzy
p1897
aVGSiaton
p1898
aVCorkandKerry
p1899
aVdushyanthk7
p1900
aVneeldesai1992
p1901
aVSiyonaSoftware
p1902
aVOneMoreFoodie
p1903
aVHerzDana
p1904
aVsefaz37
p1905
aVAnaMRossetti
p1906
aVWhosKevinRoemer
p1907
aVStudentAidSolut
p1908
aVakj_techno
p1909
aVButtiSalem
p1910
aVer_scientist
p1911
aVPanipat00723Dev
p1912
aVMSUWORLD
p1913
aVMelInTheBoro
p1914
aVvignesh_sd
p1915
aVWIITMikeSteele
p1916
aVBenPfeiffer45
p1917
aVEVROXVIII
p1918
aVCCCTROOPS
p1919
aVGalvinCenter
p1920
aVPiperTrust
p1921
aVplacefinders
p1922
aVUoMEngSci
p1923
aVBursonLift
p1924
aVThePhDProject
p1925
aVRaj60135195
p1926
aVOmerFarook
p1927
aVvijayprakash15
p1928
aVProstheticSol
p1929
aVAlexandrio_
p1930
aVPeriwalY
p1931
aVmeiwang2028
p1932
aVmyfitfund
p1933
aViiconline
p1934
aV3108smit
p1935
aVGovTechChicago
p1936
aVDavidBudell
p1937
aVHoynes_CPA_Grou
p1938
aVBottleBobJ
p1939
aVgrzhang2013
p1940
aVakhil_ajmal
p1941
aVNMNH
p1942
aVprasu_the_one
p1943
aVsatyabansal
p1944
aVAffablegiant
p1945
aVHarshitnic
p1946
aVMaureenSertich
p1947
aVThe_Catalan10
p1948
aVDewanOcdewan
p1949
aVtee312
p1950
aVannecost66
p1951
aVbvpieee
p1952
aVTheOfficialACM
p1953
aVkCura
p1954
aVbhat_pavan
p1955
aV1111NS1111
p1956
aVJackClarke82
p1957
aVCiciRaoXi
p1958
aVappisharop22
p1959
aVtaehosun
p1960
aVkeiabroad
p1961
aVshijinming89
p1962
aVxuyang9
p1963
aVEDGARD_MKTB
p1964
aV68redvwbug
p1965
aVdonghun221
p1966
aVsrsumi
p1967
aVvmlprop1
p1968
aVARUSHI000
p1969
aVMyNamesNotMitch
p1970
aVkoushal12323
p1971
aVstephniawang
p1972
aVEdUSAManizales
p1973
aVrajuvenkat1995
p1974
aVjorgeiit
p1975
aVJamesKiriazes
p1976
aVsimonwang11
p1977
aVbythegraham
p1978
aVRobertLaRue
p1979
aVIkeScience715
p1980
aVTecDoctor
p1981
aVKankakeeCoEDC
p1982
aVgabrifneves
p1983
aVlouisbyrd3
p1984
aVpatriciajcronin
p1985
aVZaxisFactory
p1986
aVGMastarone
p1987
aVidyllic_gooner
p1988
aViizzydrizzy
p1989
aVyjtsolutions
p1990
aVLabSourceInc
p1991
aVPunjKunaal
p1992
aVjolan94
p1993
aVpashanta
p1994
aVIITSOAR_Jacob
p1995
aVtrophy071
p1996
aVsameerchourasia
p1997
aVemperorcezar
p1998
aVPankaj_iitan
p1999
aV_ainisa
p2000
aVneto_jaz
p2001
aVe52gar
p2002
aVa6799761db0d4f7
p2003
aVaccusedengineer
p2004
aVVanderCookMECA
p2005
aVMaddenMJ
p2006
aVSSP020978
p2007
aVbhargavaiitd
p2008
aVdhruvasharma15
p2009
aVconcreteplains
p2010
aVutsavroy211998
p2011
aVemilygalie
p2012
aVGodofGaming187
p2013
aVUsha_Roland
p2014
aVFishPaopao
p2015
aV__KARAN___
p2016
aVviperfish
p2017
aVSANDIPPATEL36
p2018
aVIedap
p2019
aVMuchSoAmaze
p2020
aVAgentKarin
p2021
aVyateegupta
p2022
aVKaterina_Paz
p2023
aVariegoldshlager
p2024
aVabhiroopchatto
p2025
aVc4atweets
p2026
aVJoshatNRDC
p2027
aVBourns
p2028
aVcappex
p2029
aVbeiyeqingteng
p2030
aVhemantkn333
p2031
aVStartUpsFashion
p2032
aVguoshuheng
p2033
aVIITRGL
p2034
aVDeshini94
p2035
aVLibbyRapin
p2036
aVTasseltoppers
p2037
aV150394alok
p2038
aVUHBrazil
p2039
aVbowenlu91
p2040
aVandywangduck
p2041
aVlfeng5
p2042
aVhi_future_tech
p2043
aVcassiodias25
p2044
aVMengyaoCui
p2045
aVTechNewsIIT
p2046
aVbrunogear
p2047
aViamjaseem
p2048
aVSpAdithya
p2049
aVpaullandn
p2050
aVmrossi19
p2051
aVxjianqi
p2052
aVSeminarsCheeta
p2053
aVchicagonewsnow
p2054
aVjayala2090
p2055
aVJGabinoD
p2056
aVsuerabs69
p2057
aVsa360128
p2058
aVHanahFakhouriHa
p2059
aVJosemtorresM
p2060
aVPCSEDU
p2061
aVDeepBasu99
p2062
aVjoydivasian
p2063
aVwzhaniit
p2064
aVkavya_k_n
p2065
aVsandeeprajsurya
p2066
aVFidessaJobsNA
p2067
aVisaan_khan
p2068
aVsparshgoel11
p2069
aVcaseygfranklin
p2070
aVArunesh99
p2071
aVCCGlobalChicago
p2072
aVrajdhanijaipur
p2073
aVGraceLiu10
p2074
aVsameeur_rahman
p2075
aVrk_sastry
p2076
aVyulestoic
p2077
aVMRoman1031
p2078
aVPRAVEENKUMR1
p2079
aVPolskiJanek
p2080
aVNishankPujar
p2081
aVEdUSAIndonesia
p2082
aVlumiereY
p2083
aV0dpmartin0
p2084
aVchrisz1__
p2085
aVMzMel66
p2086
aVunichallenges
p2087
aVlive_connor
p2088
aVProTechSearchIL
p2089
aVeasonz2011
p2090
aVIntegerbikaner
p2091
aVpremchandar2111
p2092
aVMeredithHilt
p2093
aVSheldonTamta
p2094
aVgarytsaoo
p2095
aVpaswanpoojay
p2096
aVntaluzek
p2097
aVicalabri
p2098
aVsoul_vegetarian
p2099
aVTechnologyViews
p2100
aVUniMonk
p2101
aVkyabakchodihai
p2102
aVAchieversTu
p2103
aVyashgandhi241
p2104
aVTENERRDIS
p2105
aVpod_design
p2106
aVrohitkarma
p2107
aVACETECHNICAL
p2108
aVSpot_Solutions
p2109
aVNewtonsAttic
p2110
aVCoyoteLogistics
p2111
aVsatyenderkumar9
p2112
aVbrandonksimons
p2113
aVtropismBLOG
p2114
aVAbhi_Chandra
p2115
aVMichael_Short
p2116
aVharshitdubey61
p2117
aVBarronWetStone
p2118
aVAnorsa14
p2119
aVchandravadanp
p2120
aVsaurabh22041991
p2121
aVJorge54Guzman
p2122
aVjamusa21
p2123
aVhemathmohit
p2124
aV1_state
p2125
aVunclegerg
p2126
aV312Parks
p2127
aVhappoldphysics
p2128
aVanamabro
p2129
aVatOmar95
p2130
aVpauljstill
p2131
aVlorimiller89
p2132
aVanopc
p2133
aVnufelis
p2134
aVCristAlar
p2135
aVnbfrantz
p2136
aVGOKULRAJN79
p2137
aVuc_talent
p2138
aVdashingsamantha
p2139
aVpoetsbeforeedit
p2140
aVAmadeus98
p2141
aVkahnaiyya
p2142
aVIITRehabPsych
p2143
aVgemi_sky
p2144
aVWhimbleBooks
p2145
aVkrybaltowski
p2146
aVElhachemiS
p2147
aViitians_in
p2148
aVMACHAOnline
p2149
aVIm_aadee
p2150
aVAmulyaVadlamudi
p2151
aVasanabr1
p2152
aVkrishnavarma183
p2153
aVCommonApp
p2154
aVShowingCityWide
p2155
aVLHFletcher
p2156
aVChrissyMDwyer
p2157
aVfair_uz
p2158
aVmanishiistech
p2159
aVEdUSAtips
p2160
aVviveksngh665
p2161
aVDakotaBetts27
p2162
aVdnainfo_breen
p2163
aVepostfix
p2164
aVPerfectPower
p2165
aVyungkim
p2166
aVTheTybert
p2167
aVrkgudboy
p2168
aVCREO2create
p2169
aVlizamcqueney
p2170
aVSiegeAce
p2171
aVSFelemban
p2172
aVDqe6B
p2173
aVxiaoxiwang0909
p2174
aVnetrambhu
p2175
aVswideasweek
p2176
aVCJmango
p2177
aVurkime
p2178
aVBen_Glaser
p2179
aVarijkiwen
p2180
aVDanielCSamson
p2181
aVfirstfreelancer
p2182
aVTurnerChicago
p2183
aVresearchlady
p2184
aVAkshaybeVerbose
p2185
aVMLMorley
p2186
aVdavuski357
p2187
aVLombardEvents
p2188
aVgprakash080
p2189
aVAyushSi18086803
p2190
aVSrikar378012
p2191
aVPadmaPujitha
p2192
aVRDubbyaA
p2193
aVikcm22
p2194
aVAndreMKonig
p2195
aVredwood1050
p2196
aVSinghaTamal
p2197
aVCarlosTejero_
p2198
aVSA7YAM
p2199
aVanuzz_tomar
p2200
aVILTechLawyer
p2201
aVvikas12121200
p2202
aVdipujls
p2203
aVBITM1315
p2204
aVcomplore
p2205
aVjigross
p2206
aVSwagChamp1
p2207
aVCAMPUSPEAK
p2208
aVcvisionaries
p2209
aVBKTooley
p2210
aVPrizefighter00
p2211
aVjamzou
p2212
aVOglesbyK
p2213
aVmpk339
p2214
aVmuhammedfayyad
p2215
aVShari_IIT
p2216
aVGvcphillyMe
p2217
aVitujjwal
p2218
aVGoodeSTEM
p2219
aVmikanassociates
p2220
aVsheikhyasirali1
p2221
aVaaaea_iit
p2222
aVAbenezermesfin1
p2223
aVindianhedgefund
p2224
aVTapanMehta4
p2225
aVdosmyhero
p2226
aVPigeonPick
p2227
aVUnited_In_Mcr
p2228
aVJoeStainbrook
p2229
aVarray_v0
p2230
aVkellyaschaefer
p2231
aVRegenraTD
p2232
aVmumbasaviour
p2233
aVTMAInfo
p2234
aVToastingDesign
p2235
aVcdunn1993
p2236
aVSusanFaraone
p2237
aVsooner_sean
p2238
aVLeadARC
p2239
aVflywillow
p2240
aVBenMTaylor
p2241
aVNatlStudentDay
p2242
aV8822899670
p2243
aVshankar2929
p2244
aVBradCFink
p2245
aVoptimainc
p2246
aVRaychatter
p2247
aVIyanuOgbara
p2248
aVecell_iitb
p2249
aVHydePark_CHI
p2250
aVSeanZhang2012
p2251
aVMukeshSen272
p2252
aVTransportChgo
p2253
aVGOJFRC
p2254
aVIIT_PSM
p2255
aV1armedGeek
p2256
aVbritnic1
p2257
aViit_ccc
p2258
aVrbsangu97
p2259
aVpat_brenninski
p2260
aVJohnHebert_
p2261
aVGURURAJARSHI
p2262
aVClouddomain1
p2263
aVIITGrads2013
p2264
aVsmitjn056
p2265
aVaskar_babu
p2266
aVSandraMarijan
p2267
aVCindyWojdyla
p2268
aVsavishkar
p2269
aVaDitya_adj_999
p2270
aVjudeds
p2271
aVAHessLoch
p2272
aVShraddhakant
p2273
aVdakats
p2274
aVBorgHunter
p2275
aVSavaliyaKundan
p2276
aVOmo_Ikerin_Opin
p2277
aVsukumarsatyen
p2278
aVelysehaswords
p2279
aVT2B4Risk
p2280
aVramtekemohnish
p2281
aVPaulzhy
p2282
aVGroupStrawberry
p2283
aV1755Kamal
p2284
aVnuclear94
p2285
aVAnnDwyer_Crains
p2286
aVisandeepkhandai
p2287
aVrebeckas
p2288
aVirena_grauzinis
p2289
aViitguide
p2290
aVMytaleStore
p2291
aVcool_mudgal
p2292
aVsivangrj2007
p2293
aVNiesche1918
p2294
aVJaneZhen07
p2295
aVcollege2job
p2296
aVAndreScripts
p2297
aVDocKimS
p2298
aVPortElectLab
p2299
aVacsmith13
p2300
aVbhagi_009
p2301
aVgnielson
p2302
aVkangell50
p2303
aVRoneyRathi
p2304
aVaduenas999
p2305
aVRHA_IIT
p2306
aVshobyabdi
p2307
aVkjonelis
p2308
aVAgamjain1
p2309
aVsrutsam
p2310
aVctermtec
p2311
aVchmeyers
p2312
aVJonahLupton
p2313
aVSonuyadavS7
p2314
aVkamal_kishor704
p2315
aVbrickhouse817
p2316
aVRahul8446213934
p2317
aVstealthresource
p2318
aVxMannyG
p2319
aVGrammarly
p2320
aVjshelby1991
p2321
aVajay_kishan
p2322
aVthegadgetlife
p2323
aVJaysonRecruiter
p2324
aVBradvritter
p2325
aVAlanMatthew1
p2326
aVredkaapi
p2327
aVCheekuShridhar
p2328
aVnabeel1480
p2329
aV912dheerajYadav
p2330
aVjsseck
p2331
aVfacets22
p2332
aVCSForJesus
p2333
aVae19051
p2334
aVEightNature
p2335
aVbmanojiitg
p2336
aVDelGiorgioSolfa
p2337
aVacaides
p2338
aVrugada3229
p2339
aVpujasitaula1
p2340
aVvikas1981615
p2341
aVdawn_novak
p2342
aVdayanara550
p2343
aVNikhilHegde2
p2344
aVMamaGrows
p2345
aVJohnJSpears
p2346
aVjerhester
p2347
aVPaperead_
p2348
aVsachinb00000000
p2349
aVLuisLarco
p2350
aVnsingh005
p2351
aVTNRforparents
p2352
aVvinodbhalerao24
p2353
aVsunny1patel
p2354
aVdigihistorylab
p2355
aVFpower99
p2356
aVjessa10250419
p2357
aVKris_4ever1
p2358
aVSonowalAkash
p2359
aVwei______
p2360
aVAndrePphillip
p2361
aVjkalfen
p2362
aVDOICareers
p2363
aVEle_nada
p2364
aVdhruv944
p2365
aVIIT_Evan
p2366
aV0c8f4857a9ef4b6
p2367
aVPOAHCommunities
p2368
aVvedasanthi
p2369
aVKohlerJobs
p2370
aVpreptalktv
p2371
aVAaron3221
p2372
aVMCBHARTI
p2373
aVsaurav6190
p2374
aVnenacole
p2375
aV8sanjeev2011
p2376
aVDevendra_dwived
p2377
aVDaniel_KOO
p2378
aViacobus
p2379
aVthedrawhoward
p2380
aVMelanie9382
p2381
aVFlistof
p2382
aVgreenshift77
p2383
aVjohngroszko
p2384
aVOrunje
p2385
aVluv_n_affection
p2386
aVlcooper
p2387
aVJoshiRamVelpula
p2388
aVFRC4551
p2389
aVabhisheks292
p2390
aVChicagoInfinite
p2391
aVrusscollier
p2392
aVPercipia1
p2393
aV047_yash
p2394
aVBrandeisU
p2395
aVNavnSha124
p2396
aVmashbrock
p2397
aVrhlblwl
p2398
aVrahul_tech007
p2399
aVpaulanandtweets
p2400
aVAmanda_JobFairy
p2401
aVGlocalStudy
p2402
aVBuddhaeducom
p2403
aVLabNewsNetwork
p2404
aVJodelCharles
p2405
aVland_archt
p2406
aVErinGMcDonald
p2407
aVSistersOnCampus
p2408
aVianwiese
p2409
aVmarinaalira
p2410
aVsravya_dasari
p2411
aVsumitms100
p2412
aVvk3681491
p2413
aVTutelmids
p2414
aVannna_medina
p2415
aVthedivineevents
p2416
aVJwoodz525
p2417
aVJennifer9802
p2418
aVbeingabhi143
p2419
aVdalia_smith00
p2420
aVBF_IllinoisTech
p2421
aVVanViet0906
p2422
aVGui_Saussay
p2423
aVErinwangyifei
p2424
aVSHEN_MIN
p2425
aVPillowman918
p2426
aVchauhanajeet12
p2427
aVGxChicago
p2428
aVCassandraSlatt1
p2429
aVdustingarlitz
p2430
aVzwang617
p2431
aVaustinwei2011
p2432
aVvalmirismaili
p2433
aVHybridesign
p2434
aVdrjamesmcmahon
p2435
aVca6e0aaaaa1b4b1
p2436
aVbigyan428
p2437
aVNRajansuki
p2438
aVzorbageek
p2439
aVManasasundaram
p2440
aVIITUBC
p2441
aVchiartshs
p2442
aVj_chytown
p2443
aVsssbox
p2444
aVESME_Alumni
p2445
aVsaurabhsakhare6
p2446
aVprakash521993
p2447
aVCordochoreaD
p2448
aVLatitude20N
p2449
aVbhuvnesh169
p2450
aVsanjivpune
p2451
aVfreshphysics
p2452
aVTajisDelivery
p2453
aVMsFadeAway
p2454
aVAtelierars
p2455
aVHubGroup
p2456
aVTasterHan
p2457
aVhridaybuyakar
p2458
aVTheBRF
p2459
aVnishants
p2460
aVIlangoven93
p2461
aVagangauvinho
p2462
aVThousandAndOnes
p2463
aVIITCrownJoules
p2464
aVSEGFUSEStudio
p2465
aVManal1407
p2466
aVGratefulDean
p2467
aVGirishRaghavend
p2468
aVWillyTaracena
p2469
aValthebaker43
p2470
aVGarsee620
p2471
aVmchlecarr
p2472
aVMyNameIsShayna
p2473
aVjagankjagan
p2474
aVMarQuik
p2475
aVVIR_FaithOnPZZ
p2476
aVGopal12101689
p2477
aVdtlastudios
p2478
aVmrcravens
p2479
aVcoralpais
p2480
aVyouandme_dating
p2481
aVdeborahnavarra
p2482
aVYungBKim
p2483
aVuzairahamed
p2484
aVwturner2323
p2485
aVLinsong800
p2486
aVBridgeportAlly
p2487
aVnamochik
p2488
aVCaffiene_Svk
p2489
aVHegdeAshwath
p2490
aVVoteMeForGod
p2491
aVDamandeeepddsb
p2492
aVTechGuyJeff
p2493
aVPriyanka19951
p2494
aVILBroadcasting
p2495
aVsylwia_oska
p2496
aVdeepakoptimist
p2497
aVLxLin719
p2498
aVHectorCamposh
p2499
aVCityYearSAC
p2500
aVJoinMAVERICK
p2501
aVPritzkerClub
p2502
aVavaughan61
p2503
aVKALYANSINGH16
p2504
aVxy_Mike
p2505
aVpandabears5761
p2506
aVqinic
p2507
aVWoroud
p2508
aVIITRobotics
p2509
aVcpstudent
p2510
aVkathrynrosypal
p2511
aVCifci
p2512
aVPravechChauhan
p2513
aVTheHopHaus
p2514
aVillinoisslate
p2515
aVnkbigbear
p2516
aVJohn_Hubert
p2517
aVTJLaFave
p2518
aVjoelkrauss
p2519
aVRoyalKnight_Dy
p2520
aVBhagvatMandar
p2521
aVJOELADDARWIN
p2522
aVrogerrayner
p2523
aVOussarTweeT
p2524
aVsubhamscience_
p2525
aVHarshalmahaja16
p2526
aVJobGiraffe
p2527
aVUnitedEducators
p2528
aVsammit17
p2529
aVSean_Kiley_21
p2530
aVRamawat5
p2531
aVInnovationReady
p2532
aVeverchanging_b
p2533
aVshelleystern
p2534
aVimashishgaurav
p2535
aVnjcollegewise
p2536
aVHaPIDatabase
p2537
aVtylerdesignmesh
p2538
aVbilgicm
p2539
aVCamilla317
p2540
aVKonnect_meeting
p2541
aVmidnitepostman
p2542
aV_purvishkumar
p2543
aVsonukum19790465
p2544
aVvaidhynk
p2545
aVsameep6
p2546
aVrohitphy
p2547
aVNirmalChouhan9
p2548
aVunnat_singh
p2549
aVcsquare_
p2550
aVgmanoj85
p2551
aVrcoasb69
p2552
aVImhoffTech
p2553
aVmattyabeles
p2554
aVthejusticeconf
p2555
aV1_open
p2556
aVCat_Connect
p2557
aVC2Fag
p2558
aVamittbhalla
p2559
aVzealsathish
p2560
aVmotorboatmayhem
p2561
aVpaigemass
p2562
aVseekersedu
p2563
aVredDevilmtz
p2564
aVushalil93
p2565
aVShaunnapjz
p2566
aVpaulinacarlos
p2567
aVpzzuzzik
p2568
aVMunishwar1
p2569
aV2010cys7095
p2570
aVmccastelle
p2571
aVIITCareers
p2572
aVBerta_pb10
p2573
aVbsocialkid
p2574
aVoolretaw
p2575
aVPrimeraEng
p2576
aVmechineer3175
p2577
aVIPROatIIT
p2578
aVRTGHoops
p2579
aVLL_media
p2580
aVAdmissionsHOW
p2581
aVTheFranc
p2582
aVraghavew
p2583
aVtvfashionstudio
p2584
aVSightlinesLLC
p2585
aVcass_casper
p2586
aVhemalibhagat1
p2587
aVCarissaDi
p2588
aVjmbc79
p2589
aVgupul2k
p2590
aVdpatel37
p2591
aVSrivastavaKush
p2592
aVYifang2012
p2593
aVpkalia7
p2594
aVnkhaledi
p2595
aVkanirudh34
p2596
aVkstteja
p2597
aV2015_Cubbies
p2598
aVmegyi2001
p2599
aVipranav5
p2600
aVRavikumarsekars
p2601
aVrockyrohit12
p2602
aVmeHungryNow
p2603
aVGhanaStudio2014
p2604
aVishakhurana1
p2605
aVGangaReddy_P
p2606
aVd_wilburne
p2607
aVSusanLewers
p2608
aVrwilo3D
p2609
aVh_fhaxhaj
p2610
aVMohdSharib2
p2611
aVFoodChemNews
p2612
aVharsharnav1
p2613
aVFullertonEngChi
p2614
aVHana_99
p2615
aVPramithaKamath
p2616
aVzly1990
p2617
aVMuzacMasta
p2618
aVrorococoeugvic
p2619
aVscampjc
p2620
aVrakeshkoyiloth
p2621
aVChSeoud
p2622
aVWDavidWork
p2623
aVAriannaJnth
p2624
aVhumnoidsnevrlie
p2625
aVMMastromartino
p2626
aVMindCron_com
p2627
aVgyanec13
p2628
aVeccello
p2629
aVtdreismeier
p2630
aVFardinchoudhur1
p2631
aVShaikhZeef
p2632
aVFundasMadeEasy
p2633
aViXdnan
p2634
aVDivyanshujaisw8
p2635
aVGyMa7
p2636
aVWheresPerryEles
p2637
aVWinstonBond
p2638
aVkcirtaphcir
p2639
aVshimerians
p2640
aVARemarkableOne
p2641
aVJamesGniadek
p2642
aVwilliamrobert30
p2643
aVNicolasLassaux
p2644
aVcaobo_jose
p2645
aVXay_Aan
p2646
aVVelmaToma
p2647
aVSHORT_REPORT
p2648
aViskyscraper
p2649
aVilcollegenet
p2650
aVCruiter
p2651
aVkmrtj
p2652
aVFollowGurukul
p2653
aVSK8RBoYSwG
p2654
aV1wordchrisjones
p2655
aVROKAutomation
p2656
aVadmahawar
p2657
aVMaitriVaghela
p2658
aVtschep2
p2659
aVarchit_007
p2660
aVEDUPLANETS
p2661
aVFLopes_patricia
p2662
aVrouse23vb
p2663
aVSurajDhanraj3
p2664
aVILikeIllinois
p2665
aVAajayVikram7
p2666
aVsivaadhithya1
p2667
aVdanklee
p2668
aVaarav22234
p2669
aVcuttlas_
p2670
aVRojinBabayan
p2671
aVmarilyn0422
p2672
aVhawkeygal
p2673
aVekakyirem
p2674
aVdoraemi36
p2675
aVLandPlanner
p2676
aVsalvogan
p2677
aVtheocg
p2678
aVarthurwoodlawn
p2679
aVjgroszko
p2680
aViam_anoop_ak
p2681
aVASBMGroup
p2682
aVglenn_ferrell
p2683
aVshani_sharph
p2684
aVumangvora1
p2685
aVllovellin
p2686
aViitdelts
p2687
aVYetAnotherJacob
p2688
aVDrBronzevilleMD
p2689
aVDUBurnsSchool
p2690
aVlostMessage256
p2691
aVprashant11211
p2692
aVashikame
p2693
aV93910875311
p2694
aVIITandKOTA
p2695
aVMeera3007
p2696
aVgiri_iitb
p2697
aVp1236andiyaraja
p2698
aVDNayak26
p2699
aVChi_TechScene
p2700
aVheroghanesh
p2701
aVMahendar85
p2702
aVSumesh_Sethu
p2703
aVNishargpatel
p2704
aVJML134
p2705
aVPeoplePlayWhat
p2706
aVmanoj951984
p2707
aVPlancess360
p2708
aVMarketsWiki
p2709
aVCISUVC
p2710
aVAnupBuddyCool
p2711
aVvetstowandrecov
p2712
aVyankdizzy
p2713
aVmakers365
p2714
aVCameron_Jones34
p2715
aVLavdiZ
p2716
aVTheGoodLab
p2717
aVIITEngineering
p2718
aVoscartheperson
p2719
aVEIVP_Interntnl
p2720
aVDawnDe8
p2721
aVSteveEwart2
p2722
aVdarpogi1013
p2723
aVeric_goldspiel
p2724
aVversan_edu
p2725
aVVirtualAdvising
p2726
aVM4dfr0G
p2727
aVnuinnovation
p2728
aVlintao88
p2729
aVmonsterconvecti
p2730
aVmorales_jd
p2731
aVJessicaWade13
p2732
aVmyfalafel
p2733
aVRJ79983656
p2734
aVsppk
p2735
aVChicagoBMRC
p2736
aVseshireddys
p2737
aVfozzytweetshard
p2738
aVsandeepgate
p2739
aVTheModernDem
p2740
aVSKYRAPMAG
p2741
aVlaurali67
p2742
aVgopalamity
p2743
aVoncampusdeals1
p2744
aVYHPChicago
p2745
aVRichardLiu86
p2746
aVlockhak
p2747
aVIamMVR
p2748
aVashishjhaa000
p2749
aVtimewar85
p2750
aVluluff1
p2751
aVrajrajurajeshth
p2752
aVCurvyjax
p2753
aVAnkithMJain
p2754
aVjasondtd
p2755
aVLuis_Humbert
p2756
aVWareIsRachel
p2757
aVvijaibaskars
p2758
aVwooddragonus
p2759
aVKneeShit
p2760
aVscorpiknox
p2761
aVTheTradingShow
p2762
aViitarc
p2763
aVsandra_casten
p2764
aVpure_oso
p2765
aVjrwall9
p2766
aVabhishekkrajput
p2767
aVnayanrahul08
p2768
aVHaridassSns
p2769
aVBhakthavatsala
p2770
aVsudhirksingh27
p2771
aVspicymon
p2772
aVComillas_SRI
p2773
aVGGIPanipat
p2774
aVnikhilsakhare3
p2775
aVbrooks_1
p2776
aVjuanchi_hdez
p2777
aVSerkanTasci
p2778
aVpavansl
p2779
aVZipcarChicago
p2780
aVhardik_setia
p2781
aVCrainsChicago
p2782
aVimpraveen28
p2783
aVashraf5486
p2784
aVsnarayananstaff
p2785
aVBenahmin
p2786
aVGreenBeautyCEO
p2787
aVbillzhangsh
p2788
aVMerchMartEvents
p2789
aVsummerlearning
p2790
aVRRJay_
p2791
aVEdumass2011
p2792
aVHace_Online
p2793
aVLearningLateral
p2794
aVwhystudyhere
p2795
aVjoy93_joy
p2796
aVCrowdTMeeting
p2797
aVabhifootballer
p2798
aVdominic0313
p2799
aVRinorKurteshi
p2800
aVDC_Comments
p2801
aVNEERAJ480
p2802
aVDheerajGajakosh
p2803
aVdelValleChicago
p2804
aVaAhlyah
p2805
aVISEIFoundation
p2806
aVChicagoKentLaw
p2807
aVCarlH012
p2808
aVShaunHerholz
p2809
aVIIT_Octopus
p2810
aVMainakBasunia
p2811
aVChiCaJap
p2812
aVSmallEntIndia
p2813
aVRockyforce
p2814
aVrk9891743422
p2815
aVfiquni
p2816
aVNautiyalA
p2817
aVroflgoo
p2818
aVnikhiljain_123
p2819
aVstudyadda
p2820
aValfredoschoch
p2821
aVChancellor_CCC
p2822
aVAlianeBoxmydorm
p2823
aVMarcSednaoui
p2824
aVflacostacos
p2825
aVkingotho
p2826
aVpeterYoxi
p2827
aVNick_Thakrar
p2828
aVtadn
p2829
aViamILtech
p2830
aV3827vt
p2831
aVMVCCAdvising
p2832
aVpawan_goldy
p2833
aVYDL_YiDengLi
p2834
aVRajnagar81074
p2835
aVamlthrawn
p2836
aVHamiltonDave
p2837
aVpuneet_bal160
p2838
aVTerryPCawley
p2839
aVSingleHopKyle
p2840
aVdrarosell129
p2841
aVvpyindia
p2842
aVMazenAtaya
p2843
aVbrilliantdirect
p2844
aVMichelleBLarson
p2845
aVRAHULSI88509074
p2846
aVshantanu01verma
p2847
aVRHoppsPCS
p2848
aVclee61
p2849
aVPiyushGupta787
p2850
aVIITJEEBlue
p2851
aVPolth
p2852
aVNeelamRok
p2853
aVRogersParkMan
p2854
aVitsashu04
p2855
aVChloconutt
p2856
aVbbbenjamin
p2857
aVSFKankanhalli
p2858
aVkatielovesmath
p2859
aV31stStreetBus
p2860
aVcampusdiaries
p2861
aV_missdani
p2862
aVIIT_Stuart_Jobs
p2863
aVIITJEEcoaching
p2864
aVBankai07
p2865
aV2batmanrn
p2866
aVCheryl_Delisle
p2867
aVIamHmnt
p2868
aVAznvamp1214
p2869
aVApex3Security
p2870
aVkatbiedenstein
p2871
aVramawat
p2872
aVyzeng13
p2873
aVCalarcoNacie
p2874
aVastralzn
p2875
aVDNEGRILLO
p2876
aVxfelipesierra
p2877
aVControl_Design
p2878
aVA_S_K_Azad
p2879
aVMonkeyBars_Chi
p2880
aVsylvianancheng
p2881
aVJuncheng_Lu
p2882
aVmayankmani91
p2883
aVarpansahoo_96
p2884
aVMrsBaronHill
p2885
aVmontanoyeo89
p2886
aVDudeProducts
p2887
aVnksharma1979
p2888
aVsuperwangbo
p2889
aVRecruit_Travel
p2890
aVQinxinChen1
p2891
aVmserdarakyel
p2892
aVb_jayachandra
p2893
aVteemo321
p2894
aVvaibhaviitb10d
p2895
aVExplorerProgram
p2896
aVLaurenBGraphics
p2897
aVsterlingeng
p2898
aVESW_IIT
p2899
aVtanuj_nagal
p2900
aVLakeviewSabi
p2901
aVBhagraj_Purohit
p2902
aVuniversityicons
p2903
aVejmoses1
p2904
aVgoinginawkward
p2905
aVPartsFill
p2906
aVSonali8
p2907
aVH2_AC
p2908
aVJoshuaDLaborde
p2909
aVlobofish64
p2910
aVinfo85543760
p2911
aVPublicGains
p2912
aVashwinjk90
p2913
aVLUMEDZI
p2914
aVIam_Soum
p2915
aVraviran80165174
p2916
aVsnapclass
p2917
aVncrivell
p2918
aVtmaverickcs
p2919
aVJeffreyMcQ
p2920
aVFLLWFoundation
p2921
aVLSumer
p2922
aVagodika
p2923
aVDanielleGuslerP
p2924
aVKaysha2810
p2925
aVResource1_R1
p2926
aVHozefaJ
p2927
aVarjunjalan
p2928
aVMVG_VJ
p2929
aVILLspin
p2930
aVZhengyuWu
p2931
aVIITBursar
p2932
aVfjunior2
p2933
aVcpxcpxcpx
p2934
aVabyjalota
p2935
aVvacuumflux
p2936
aVSommetInterCoop
p2937
aVmydanceprint
p2938
aVshivashikhalove
p2939
aValkimo101
p2940
aVpavani37
p2941
aVtagsportsgear
p2942
aVEthanWhyMe
p2943
aV3DStudentDesign
p2944
aVjd_romano
p2945
aVrickard_joseph
p2946
aVmoygao
p2947
aVnatalie_polacek
p2948
aVAlumniCard
p2949
aVecomagination
p2950
aVkulsumsiddiqi
p2951
aVGregoryEnriquez
p2952
aVgandhis301
p2953
aVsujalshah2612
p2954
aVfmulisa
p2955
aVthebeardfish
p2956
aVlazaro92_
p2957
aVrohansoumyajita
p2958
aVgaganblr
p2959
aVhealthpolicygrp
p2960
aVabaniku
p2961
aV96gupta
p2962
aVbenmuth
p2963
aVenova
p2964
aVTruth_privails
p2965
aVApasnoreRonPete
p2966
aVponteaia
p2967
aVsanjib_skrm
p2968
aVkatiedupree88
p2969
aVPrincipalLeMone
p2970
aVoilondono
p2971
aVargohs217
p2972
aVHlsaniee
p2973
aVjeniatwell
p2974
aVajithrajb
p2975
aVMarketsReform
p2976
aVtoddjhill
p2977
aVjide_oke
p2978
aVaffirmedsystems
p2979
aVchuchu90869
p2980
aVArpitJai5
p2981
aVleesa681
p2982
aVfarihawajid
p2983
aVdsanchez91
p2984
aVMichaelwu9088
p2985
aVVishvajeetPatel
p2986
aVThreeManRocket
p2987
aVleaf722
p2988
aVspatterson66
p2989
aVLionsheadSocial
p2990
aVRenascentRabbit
p2991
aVtegulizard13
p2992
aVeswCUgogreen
p2993
aVRoyalDieStamp
p2994
aVeyadaf
p2995
aVabhishekroy909
p2996
aVgiberetta
p2997
aVNanotechAMU
p2998
aVrsnorg
p2999
aVSamanthaSharky
p3000
aVESUMMITIITD
p3001
aVVandanaGaonkar
p3002
aVrob10c
p3003
aVyayo_85
p3004
aVExamhook1
p3005
aVParmanu_Yatra
p3006
aVvihan_roy
p3007
aVQuakersNextStep
p3008
aVDDLRScholarship
p3009
aVBhushanchaudh12
p3010
aVsaicharansundar
p3011
aVMichSmit16
p3012
aVjeanconner
p3013
aVHOTSlNCE92
p3014
aVdailyfreecode
p3015
aVFutureofVision
p3016
aVomarelbannajr
p3017
aVInsideVISANOW
p3018
aVphungpit
p3019
aVkellyknight
p3020
aVwnbachicagosky
p3021
aVKaushal_iitg
p3022
aVVDArq
p3023
aVRISH4087
p3024
aVmiyfghiuwdfd
p3025
aVsainathrp
p3026
aVAlexanderPasso
p3027
aVdgromero
p3028
aVTikam
p3029
aVWIITChicago
p3030
aVChicagoCCTV
p3031
aVJeffreyHartmann
p3032
aVgirls4science
p3033
aViambushradaud
p3034
aVmarcelle_Hana94
p3035
aVkakkar_abhi
p3036
aVibzibzibzibzibz
p3037
aViKrystalSays
p3038
aVsaisredharreddy
p3039
aVnotebinder
p3040
aVsuksoonhoho
p3041
aVTeRRoR_kinG001
p3042
aVedelsonpc
p3043
aVPathosPoetes08
p3044
aVstefortiz_
p3045
aVPJM_Iam
p3046
aVprakaru
p3047
aVChiBike2Campus
p3048
aVsanthanamsatish
p3049
aVjorgeoteixeira
p3050
aVankitkumar24dec
p3051
aVchilledtitan
p3052
aVblackspectacles
p3053
aVvinaypm4u
p3054
aVswapnilgautam
p3055
aVkhammes
p3056
aVsritik35
p3057
aVkanemackay
p3058
aVcareyportis
p3059
aVepicbeardcarlos
p3060
aVMRIatIIT
p3061
aVpleasing1
p3062
aVGustavoMaria2
p3063
aVTekKnowBots
p3064
aVmallikdivvi
p3065
aVlrose1225
p3066
aVVizualAffectz
p3067
aVSmartenIt
p3068
aViitarqui
p3069
aVtimesjobsdotcom
p3070
aVOU_Dan
p3071
aVhappyfood20
p3072
aVyunkaosu
p3073
aVIllinoisTechGLP
p3074
aVILABE_BIO
p3075
aVR_KS1212
p3076
aVwebguidetv
p3077
aVBartAndrea
p3078
aVAsif_newton
p3079
aVrishikummar01
p3080
aVRajatJain1432
p3081
aVHeatherFBennett
p3082
aVWhatsAPNews
p3083
aVayodam91
p3084
aVnadraRVRE
p3085
aVMrPeter321
p3086
aVIITOL_Amy
p3087
aVkpwcosgrove
p3088
aVNayimSayeda
p3089
aVlkempire
p3090
aVHZNPplc
p3091
aVennomotive
p3092
aVTeachinginDubai
p3093
aV115f8aa204c5430
p3094
aVZJohnShen
p3095
aVIowaStateCBE
p3096
aVd360jr
p3097
aVIncredibllAnish
p3098
aVYuboDiao
p3099
aVAnil2807
p3100
aVyazeze11
p3101
aVsurajpatel710
p3102
aVkdagger
p3103
aVJason_Entler
p3104
aVAgileTroop
p3105
aVgbreezie37
p3106
aVjkosar13
p3107
aVmmiks
p3108
aVjyotiswaroopr
p3109
aVruthierachelle
p3110
aVImproveIndia
p3111
aVpatriziadimonte
p3112
aVmarcemccarthy
p3113
aVVidyamandirClas
p3114
aVsaracollegewise
p3115
aVLTD_IIT
p3116
aVj4m13stick
p3117
aVdoleshreyas
p3118
aVShineTanya18
p3119
aVe_aakash
p3120
aVOlgaAlter
p3121
aVAndrea_Andy11
p3122
aVwindval1990
p3123
aVnithinankam
p3124
aVVinca_Thirteen
p3125
aVLatinoTopix
p3126
aVFundoodatajobs
p3127
aVMTCCLateNiite
p3128
aVAbstreca
p3129
aVDucSaid
p3130
aVSoumyajitNag1
p3131
aVazarie_
p3132
aVMBrownCY
p3133
aVHjyNand
p3134
aVImbhuvanack
p3135
aVjjssfoundation
p3136
aVnityaagr24
p3137
aVneilgupta
p3138
aVZYButane
p3139
aVChinaHigherEd
p3140
aVEtoosIndia
p3141
aVLoweLife
p3142
aVbrettmonroe
p3143
aVbdrunchicago
p3144
aVsrinaathindian
p3145
aVMonikaRydz
p3146
aVpostcrit
p3147
aVAarnabNag
p3148
aVAllanCoates4
p3149
aVsanlaelaecho
p3150
aVDipsIndia
p3151
aVxinyunluo
p3152
aVCSPortis
p3153
aVvhaberkorn
p3154
aVjbmam
p3155
aVdescotoinc
p3156
aVMeiliZhao
p3157
aVpbbravo
p3158
aVsravanIITM
p3159
aVrgann05
p3160
aVRamkumar141999
p3161
aVsrilathaaramana
p3162
aVT_HUMPRHEY_IIT
p3163
aVtazierffe
p3164
aVmaitehar
p3165
aV1997_marmar
p3166
aVolivier_dutfoy
p3167
aVWLanphier
p3168
aVNewsViewTV
p3169
aVHashAmara
p3170
aVketankatrina786
p3171
aVjcocaramos
p3172
aVWorldHolidays
p3173
aVPiercedGrant
p3174
aVMcCafferyInt
p3175
aVBubbaBrewster
p3176
aVBobHenkins
p3177
aVhebaali41594465
p3178
aVbryanchambo
p3179
aVlcreising
p3180
aVL1PowerPostEVSE
p3181
aVrparham5050
p3182
aVExploreChi
p3183
aVward_hsu
p3184
aVRakesh_RCR
p3185
aVJi_Zhang_CN
p3186
aVjayjoshi_12
p3187
aVedsapi175
p3188
aVAkosuaLowery
p3189
aVLovKumar8
p3190
aVStamats
p3191
aVbooksinthecity
p3192
aVjavenzing
p3193
aVsurajpa90474989
p3194
aVkaseyi99
p3195
aVHaplessGuy678
p3196
aVsutheeshkvk
p3197
aVZelongJia
p3198
aVBWD2012
p3199
aVBarbBurgess
p3200
aVlightindiap
p3201
aVMKIITM
p3202
aVadmissionschen
p3203
aVmiriam_schmid
p3204
aVNordArquitectos
p3205
aVkalingone
p3206
aVbhoslebrijesh5n
p3207
aVDAjagekar
p3208
aVGJKoch
p3209
aVravianexpert
p3210
aVbenexist
p3211
aVvijayujn8
p3212
aVdguddad
p3213
aVlugillu
p3214
aVGlobalStudentME
p3215
aVkellycherwin
p3216
aVmayankmohit2108
p3217
aVituaijagbone
p3218
aVZ5FocusEd
p3219
aVsunnyfixer3941
p3220
aVcarlosperezalv4
p3221
aVpriti1005
p3222
aVShantyMinister
p3223
aVsriki_s
p3224
aVjamesfish
p3225
aVmelissajemerson
p3226
aVarchor_wright
p3227
aVNileshy63817601
p3228
aVluisabravodsgn
p3229
aVT0mmyGee4
p3230
aVLayaleeElzahdan
p3231
aVLuporion
p3232
aVaagheda
p3233
aVblue0628y1
p3234
aVfrauhartung
p3235
aVKatMartinez189
p3236
aVMikeSavad
p3237
aVAdam_Rayman
p3238
aVPurushothamKP
p3239
aVJ0BSHQ
p3240
aVSTEMetc
p3241
aVKevin5Maher
p3242
aVstoneboo
p3243
aVAAUWJaneAddams
p3244
aVLaSalleNetwork
p3245
aVCaroGiuse
p3246
aVwzhan99
p3247
aVCRTweet
p3248
aVCharantej001Tej
p3249
aVJessica_jp1993
p3250
aVmeracampus
p3251
aVBASFCorporation
p3252
aVSujeetSahani007
p3253
aVctpsybil
p3254
aVabhaykumar12383
p3255
aVStradosApp
p3256
aVinfo_lotus
p3257
aValexdelapole
p3258
aVKidsmartcity
p3259
aVconnectback2me
p3260
aVfardmuhammad
p3261
aVOhhThatsMesha
p3262
aVCaroApps
p3263
aVparagtak18
p3264
aVTangeNguyen
p3265
aVjecgroupofclgs
p3266
aVJimmyTon
p3267
aVJTHS_Science
p3268
aVCheapScholar
p3269
aVsoffeeyang
p3270
aVbgjokevski
p3271
aVapanwar2
p3272
aVraj_nnrs
p3273
aVshaktawat_jd
p3274
aVIFMyBossOnlyKnw
p3275
aVnemanjastuff
p3276
aVRanojoySaha
p3277
aVgazalaastha
p3278
aV_chicagoan
p3279
aVSddipiet
p3280
aVDominosKankakee
p3281
aVpraveendass35
p3282
aVduchossoisleads
p3283
aVgoodmanbitbad
p3284
aVTripti_Says
p3285
aVTejasJaishankar
p3286
aVJoannaKlimczak1
p3287
aVyuvalmerhav
p3288
aVjoekansas01
p3289
aVCurtineer
p3290
aVRaising_US
p3291
aVoo304oo
p3292
aVSkills4ChcgoLnd
p3293
aVlearnrendezvous
p3294
aVShikhasharma735
p3295
aVpatbartman
p3296
aVsagar99600244
p3297
aVvyasnamita
p3298
aVreddys6669
p3299
aVunitedJasdeep
p3300
aVProfessionalEdg
p3301
aVJordanAbudayyeh
p3302
aVchiuna
p3303
aVRexElectric
p3304
aVjeeva_aveeva
p3305
aVAC_Counselling
p3306
aVRashmiSinghal90
p3307
aVd508b5ca06f74ff
p3308
aVKLKring
p3309
aVsimplifyingexam
p3310
aVTCLorg
p3311
aVGEChicago
p3312
aVBHACaPS
p3313
aVIllinoisScience
p3314
aVEulynnGargano
p3315
aVMBAEntrep
p3316
aVm_0rli
p3317
aVSarahJindra
p3318
aVwrigleygirl82
p3319
aVNingKang1
p3320
aVsangereby
p3321
aVOMG_Smarties
p3322
aVParkerDeweyLLC
p3323
aVlucaschung0728
p3324
aVDePaulUCWbL
p3325
aVJustinIsAMaker
p3326
aVCbeSanthosh4
p3327
aVKapinosELHS
p3328
aVKainth_Varun
p3329
aVdschmieder
p3330
aVCompTIA
p3331
aVsuraekim
p3332
aVmor_tarun
p3333
aVicpatweets
p3334
aVJason_Minnich
p3335
aVRay_Hongyc
p3336
aVmanoharkat
p3337
aVsnehashis_lenka
p3338
aVSoneshUikey
p3339
aVDigiLinkIT
p3340
aViitml
p3341
aVSouthLoopHS
p3342
aVorirawlings
p3343
aVHolabirdRoot
p3344
aVmanassarmabudam
p3345
aVClimateRider
p3346
aVDonRafFoodTruck
p3347
aVankit_ajmera
p3348
aVranren_IIT
p3349
aVIs_WeiDuan
p3350
aVUniversalApp
p3351
aVprakash14129863
p3352
aVDrCJSobers
p3353
aVJinelle1
p3354
aVRajarshiChatter
p3355
aVJinchen12138
p3356
aVCollegeBoundNet
p3357
aVgenshidhapatil1
p3358
aVjoe_joedaddy
p3359
aVILTreasurer
p3360
aVYefseis
p3361
aVUnusualTrouble
p3362
aVbaskeinusaetc1
p3363
aVRAWDesignBuild
p3364
aVygonzalez74
p3365
aVniying7
p3366
aVAmyBasic
p3367
aVJossimarJ
p3368
aVkevinBedwell
p3369
aVYanZhan617
p3370
aVThreePointSq
p3371
aVIITsasdi
p3372
aVmengya1992
p3373
aVTribalVentureVC
p3374
aVpzeng_usa
p3375
aVEvilwizrd
p3376
aVChuan_Fang
p3377
aVprakhar2507
p3378
aVsshchicago
p3379
aValbertmistu
p3380
aVecoresume
p3381
aVCKLEngineersLLC
p3382
aVbkrautwurst
p3383
aVce09s008
p3384
aVNAGAPorg
p3385
aVvivekresnick
p3386
aVraflobsta
p3387
aVRasHman467
p3388
aVawadam0l
p3389
aVSevenPointDisp
p3390
aVankitch91314329
p3391
aVKaz2118
p3392
aVSarahHarrod2
p3393
aVBLUE1647
p3394
aVDavidislegit
p3395
aVWITIChicago
p3396
aVologie
p3397
aVchicagoideas
p3398
aVIITPsychology
p3399
aVerichanley
p3400
aVanu_m_ahuja
p3401
aVLAExpo1
p3402
aVEyeCeteraPhotos
p3403
aViitalumniassn
p3404
aVTheShawnMurphy
p3405
aVMyCommunity21
p3406
aVHANSwims
p3407
aVeddy_oyola1
p3408
aVScouting2060
p3409
aVfurykkow
p3410
aVArchiable
p3411
aVcananacar
p3412
aVnidaride
p3413
aVwenjust
p3414
aVSimbu07
p3415
aVanthonyalfred0
p3416
aVSteveWang1007
p3417
aVfocusedconnect
p3418
aVWise_Campus
p3419
aVLATENT_DESIGN
p3420
aVWigdanGuneid
p3421
aVHongMa_iit
p3422
aVkoteshforfun
p3423
aVbcrawfordpurcel
p3424
aVshivkumar28591
p3425
aVPrimorisNick
p3426
aVJimRarick
p3427
aVKyleCHenderson
p3428
aVBornRAD
p3429
aVrhon_123
p3430
aVBobEitel
p3431
aVfunpiper
p3432
aVLivinLife1nSD
p3433
aVmarketaccess
p3434
aVarchiyaa
p3435
aVIITLeadershipAc
p3436
aVAtakan_Tetik
p3437
aVAlphonso_Peluso
p3438
aVrajivreddyp
p3439
aVPC529Plan
p3440
aVemgee9102
p3441
aVsgcool20
p3442
aV45rules
p3443
aVimedicileather
p3444
aVcoffeeandcogs
p3445
aVmarcferrerf
p3446
aVEVJC
p3447
aVPulkitDahuja
p3448
aVJohnBuschVI
p3449
aVBasavarajGD1
p3450
aVVijayavelHytech
p3451
aVMikeGosz
p3452
aVcloudbakers
p3453
aVck2choi
p3454
aVDARPA
p3455
aVKvng_ManMan3
p3456
aVsurajparida6
p3457
aVSSpeakman
p3458
aVtina_lebleu
p3459
aVMichaelYonghuiF
p3460
aVEuridiceO
p3461
aVNIIIT4u
p3462
aV_MMorris_
p3463
aVEateryArchitect
p3464
aVrokopn
p3465
aVEngineeringEDF
p3466
aVachihar
p3467
aVAlex_9007
p3468
aVbb7jobs
p3469
aVssusina
p3470
aVkkeerr88
p3471
aVSteveNargang
p3472
aVChgoMatt
p3473
aVAKSHAYM60196231
p3474
aVshriya46
p3475
aVashthak
p3476
aVfebriansyah54
p3477
aVwindycitywindow
p3478
aVdeenakannan
p3479
aVpbshirazi
p3480
aVgtierrzclderon
p3481
aVcecigmt
p3482
aVdholakianivid
p3483
aVValleyPrepLA
p3484
aVSharylSingVNIR
p3485
aVpaulitesbelgaum
p3486
aVSaurabh009133
p3487
aVdanielawhite12
p3488
aVSuzanneAkhras
p3489
aVimRV7
p3490
aVpammoy
p3491
aVUScarletandBlue
p3492
aVblakejhageman
p3493
aVrajat28021997
p3494
aVdandamudi26
p3495
aVerabhishek1990
p3496
aVrouftantray
p3497
aVRemembus
p3498
aVLaoMango
p3499
aVcpolitis7
p3500
aVsulabhjain
p3501
aVWhateverZy
p3502
aVMengdiLiu
p3503
aVravi219
p3504
aVScottPfeiffer54
p3505
aVRachelYanover
p3506
aV11thWardChicago
p3507
aVsurajitpal6
p3508
aVchiragcec
p3509
aVDarioIlio
p3510
aVRealChocolate23
p3511
aVvirutherock
p3512
aVchhabra98harry
p3513
aVArc_anil
p3514
aVZiweiHan
p3515
aVjobsearchboard
p3516
aVarvindverma231
p3517
aVcmccomb
p3518
aVDNHS
p3519
aVSKKCHRDC
p3520
aVPositivelyposit
p3521
aVMSIFoundation
p3522
aVBhailalm
p3523
aVshesterrible
p3524
aVCoespro
p3525
aVnickflees
p3526
aVwindycscholars
p3527
aVweslynneashton
p3528
aVkishor_narayan
p3529
aVSaumyaJoshi7
p3530
aVwoodmastersmurf
p3531
aVmkenndy2
p3532
aVGreenHamNsam
p3533
aVVeltechEngg
p3534
aVpaigemass_
p3535
aVrachel4yesun
p3536
aVCollegeFish_4yr
p3537
aVIITCIndia
p3538
aVAshishS28544535
p3539
aVexcellencenoir
p3540
aVPSGSrishti
p3541
aVAmandaICleary
p3542
aVdeepiauxi
p3543
aVUniversity_Dir
p3544
aVIEEEI2MTC
p3545
aVGradResources
p3546
aVBCassan25
p3547
aVhussain0803
p3548
aVRuihanStefan
p3549
aVUNCG
p3550
aVrabiya_mustafa
p3551
aVsinghaditya14
p3552
aVPradeep28178945
p3553
aVmayaescobar
p3554
aVForestThibault
p3555
aVOmarHajIbrahim
p3556
aVJMLankford
p3557
aVTPantone
p3558
aVpalmer182
p3559
aVbcrobb
p3560
aVIyka_Enterprise
p3561
aVfannydaniella
p3562
aVLeRifai
p3563
aVShivam11298
p3564
aVroohpar
p3565
aVYogeshMec11
p3566
aVAchillesAlex11
p3567
aVmanik_siddharth
p3568
aVYadav412Sanjay
p3569
aVStarchup
p3570
aVWeb20Newsi
p3571
aVDonorFuse
p3572
aVdrkathuria
p3573
aVTahaKhademi
p3574
aVAthirMahmud
p3575
aVhighlyfavorable
p3576
aVmahendrakumarhu
p3577
aVharibol10
p3578
aVBMediaNetworks
p3579
aVweldlady13
p3580
aVfoxinaboxCHI
p3581
aVEngiitex
p3582
aVaruns89
p3583
aVSBrownLevey
p3584
aVTonPetitAmi
p3585
aVkayy__stew
p3586
aVJohnDillard11
p3587
aVAndrew_IIT
p3588
aVSylviaYan2010
p3589
aVGirlScoutsGCNWI
p3590
aVSYEDHAmzaHASAN
p3591
aVIIT_ITM
p3592
aVJEEMathStudy
p3593
aVanilforbiz
p3594
aVMichaelErie
p3595
aVSamWill_18
p3596
aVMuxian_Shen
p3597
aVICUMT2015
p3598
aVdgartner
p3599
aVagrawal_pk
p3600
aV_LisaRich
p3601
aVkvikash668
p3602
aVChrisCRhee1
p3603
aVsinghanoop676
p3604
aVrayballard
p3605
aVHardikvagadia2
p3606
aVAtargroup
p3607
aVAVBIT
p3608
aVOzinga
p3609
aVCCE_Illinois
p3610
aVIIT_RTC_Lab
p3611
aVjobstrial
p3612
aVhackuc
p3613
aViam_rajatsharma
p3614
aVEbonmage
p3615
aVamusementlogic
p3616
aVbittergrapes
p3617
aVprincessjchase
p3618
aVnikdunham
p3619
aVMilyli
p3620
aVshannky16
p3621
aVpinnapearl
p3622
aVsenthamizhgk
p3623
aVzswgzx
p3624
aVanishirahatti
p3625
aVFS_Gilberts
p3626
aVandreyisaac
p3627
aVReshamMakhija
p3628
aVClarksonUniv
p3629
aVcherop_quille
p3630
aVoeyfish
p3631
aVttflyingbird
p3632
aVdejielect
p3633
aVReginaLamonica
p3634
aVRavkiranN
p3635
aVSparkeyG
p3636
aVPushpen20041619
p3637
aVphilscitech
p3638
aVShashwatYadav10
p3639
aVJokeDeli
p3640
aVAPGPromotions
p3641
aVMohantyAnang
p3642
aVbafordnajela
p3643
aVfinanceseer
p3644
aVSUBNETsolutions
p3645
aVrekhabala
p3646
aVpankajiitjee
p3647
aVEsparzaJ
p3648
aVjosheewashee
p3649
aVZZZZQ22
p3650
aVBryanScheulin
p3651
aVJaimeHerrero4
p3652
aVmdoukmas
p3653
aVHosseintkh
p3654
aVJanetMcNicholas
p3655
aVDimasTaracena
p3656
aVrahulvw_19
p3657
aViitswim
p3658
aVIITSOAR_Elvin
p3659
aVstadtgeist
p3660
aVsanjaym707
p3661
aVWarrior_Princss
p3662
aVPeaceOvrViolnce
p3663
aVnavneetvineet
p3664
aVygao1980
p3665
aVSAKSHAMA_GT
p3666
aVeditor_edu
p3667
aVslu_gunner
p3668
aVanuragoswami22
p3669
aVAMOL__
p3670
aVShamayel13
p3671
aVMercySuzanneD
p3672
aVhuytle95
p3673
aVjuliusyuan
p3674
aVnishwashere
p3675
aVRecruiterintheD
p3676
aVvinay0202
p3677
aVsanjusuntech
p3678
aVkfairthementor
p3679
aVcaptaincool_msd
p3680
aVAlex_Saucedo
p3681
aVInfoEduvision
p3682
aVjaya_sagar
p3683
aVAC_PFP
p3684
aVKennethMirajkar
p3685
aVpuneet82
p3686
aVrjlenau
p3687
aVsnehalshahr
p3688
aVAndrewKomosa
p3689
aVTejasWalawalker
p3690
aVlumitynpo
p3691
aVrazgoblue
p3692
aVpraveennawal123
p3693
aVMeninaAmericana
p3694
aVwiviaoctarena
p3695
aVdip_ak
p3696
aVmediacovenant
p3697
aVSatvikaSarat
p3698
aVforumonenergy
p3699
aVcollegeget
p3700
aVIEEERebootComp
p3701
aViKimmieD
p3702
aVCrowdtLA
p3703
aVpranava_teja
p3704
aVBrandonIITAlum
p3705
aVSam_ChateredAcc
p3706
aVzx199538
p3707
aVSteven_VdB80
p3708
aVjonbarger
p3709
aVyatharthchoubi1
p3710
aVC2ST
p3711
aVlovingvinodnita
p3712
aVMTumarkin
p3713
aVguy3318
p3714
aVPeekskumar
p3715
aVDevOpsOnWindows
p3716
aVRyanZCummings
p3717
aVBarcelonaTech
p3718
aVSCSTATE1896
p3719
aVHR8920
p3720
aVjasonfinch13
p3721
aVclint_bhola
p3722
aVAslinurTaskin
p3723
aVnerkerr
p3724
aVsbtyagi
p3725
aVAditya_jha007
p3726
aVmdfirdosh0
p3727
aVPatrickCermak
p3728
aVTheBogIIT
p3729
aVBogIIT
p3730
aViServe_iLead
p3731
aVmegmyname
p3732
aVcjstellaliu
p3733
aVMobiKwik
p3734
aVFH8503
p3735
aVSYC_HS_Guidance
p3736
aVGop3rd
p3737
aVvishal_vijender
p3738
aVkoryna_felt
p3739
aVGiveToCollege
p3740
aVdas3700
p3741
aVPradip751
p3742
aVMountTalent
p3743
aVnerdgrad
p3744
aVAlwaysKTF5
p3745
aVrishirajshkl02
p3746
aVliza_xc
p3747
aVAsifAsifali54
p3748
aVCuiPeach
p3749
aVDrShukla_17
p3750
aVMidCoInc
p3751
aVOTSProjectMg
p3752
aVmmibanezherrero
p3753
aVCraticPR
p3754
aVjazz_hans
p3755
aVadrumms
p3756
aVrhynes57
p3757
aVMattDeGeeter
p3758
aVakrish2405
p3759
aVsikhu687
p3760
aVANU_EE1
p3761
aVcambridgespan
p3762
aVamitagarwal27
p3763
aVavantikaajoshi
p3764
aVgsayuri_
p3765
aVElianaMarroquin
p3766
aVAkshadaParsewar
p3767
aVsr_maheshmeena
p3768
aVjagbandhu007
p3769
aV86rishabh
p3770
aValekbabel
p3771
aVCIMChicago
p3772
aVdearmeganne
p3773
aVVictorSanchez
p3774
aVVonSteubenMSC
p3775
aVShreyaSatsangi
p3776
aVGSSMAlumni
p3777
aVcm13900
p3778
aVqianscsu
p3779
aVachyuth6654
p3780
aVSPERANZA2010
p3781
aVchiwomenarch
p3782
aVWMAengineers
p3783
aVbhootmechanical
p3784
aVyoung_shaneo
p3785
aVNeri_Suki
p3786
aVDebatriPutatund
p3787
aVTheChikuEzine
p3788
aVravishankar007R
p3789
aVrisshc
p3790
aVwilliamsvicky15
p3791
aVSwarnimKa
p3792
aVZeldaloverF
p3793
aVhamzesukkar
p3794
aVsara_munaam
p3795
aVdarraul
p3796
aVAUSLWPAHS
p3797
aVTheyHateOurJoy
p3798
aVmanideep_varma
p3799
aVAdityas54547518
p3800
aVrahulsi62853868
p3801
aVfelipeMparages
p3802
aVbavincen
p3803
aVZanSyed23
p3804
aVjkpowell
p3805
aVCCoBronzeville
p3806
aVLogicPad
p3807
aVKat3anne
p3808
aV317500
p3809
aVNathanHinch
p3810
aVfiatlux2015
p3811
aVgina96k
p3812
aVMarkViramontes
p3813
aVEACNovosibirsk
p3814
aVsmiling_zoe
p3815
aVSharenthShare
p3816
aVBenAbejas
p3817
aVBD_PM
p3818
aVSamCholke
p3819
aVGWcollege
p3820
aVhusain_das
p3821
aV9eb1ec4a5aba43b
p3822
aVbdofexaminers
p3823
aVfugexlac
p3824
aVrosellegrant
p3825
aVSDrNH2
p3826
aVSicueft
p3827
aVA_GomezChicago
p3828
aVskeggy
p3829
aVXiangyuSheng
p3830
aVandreasanchos
p3831
aVchunwangyuen_7
p3832
aVHaleysBirthMoth
p3833
aVAjayNirankari
p3834
aVandelam1
p3835
aVAbhijeetcooland
p3836
aVflores2689
p3837
aVeciand
p3838
aVBrianThompsonMD
p3839
aVpateltirthm
p3840
aVGanesqConsult
p3841
aVRajaniitm
p3842
aVHK_PPR
p3843
aVnishantpatel172
p3844
aVSE_Careers
p3845
aVIrisRecruiting
p3846
aVQueenMoshushu
p3847
aVArgonneNE
p3848
aVccusack92
p3849
aVdylaneasley
p3850
aVpizzatwopieces
p3851
aVStacey_Cpercent
p3852
aVEnanaAssaf
p3853
aVbcanalda
p3854
aVbevenke
p3855
aVSeanHahn4
p3856
aVpriyanka160193
p3857
aVLivestream
p3858
aVrhendricks3
p3859
aVmodelixrobotics
p3860
aVArtyrSharf
p3861
aVmehrajwani1
p3862
aVMasdar_ChemEng
p3863
aVbgneu
p3864
aVituint1773
p3865
aVueusdcs
p3866
aVCollegeBuzzz
p3867
aVAnirudhMadedhi
p3868
aVdeshraj_charan
p3869
aVrandomusingsnip
p3870
aVNIUCEET
p3871
aVhmehta19
p3872
aVsmothix
p3873
aVICERTSD
p3874
aVOmarInCongress
p3875
aVcorruptiitn
p3876
aVjenmcbiggs
p3877
aVKbKbach12
p3878
aVcraghuve
p3879
aVseshanbabu
p3880
aVchem24ankur
p3881
aVGateway_abroad
p3882
aVA_Margovia
p3883
aVnandhakumarkvs
p3884
aVlaw58
p3885
aVanidash001
p3886
aVgamit_robin
p3887
aVlolo_dante
p3888
aVOffTheHookPromo
p3889
aVmomboos
p3890
aVraishubham664
p3891
aVleezyray
p3892
aVIgnus_IITJ
p3893
aVYangNan1013
p3894
aVakshay1350
p3895
aVrahulverma006
p3896
aVsylvester_sunny
p3897
aVWilson_Janine_
p3898
aVmaruwilla
p3899
aVmokona2008
p3900
aVIDOT_Illinois
p3901
aVmatthuntr
p3902
aVjacobraj
p3903
aV8ultraman8
p3904
aVpgannon48
p3905
aVRAJHANSHGUPTA
p3906
aVWeizhenDong1
p3907
aVcollegeboxes
p3908
aVced160
p3909
aVwarzuegel
p3910
aVKhichadi_Fry
p3911
aVmattisalbright
p3912
aVsilentevents
p3913
aVSongaSaver
p3914
aVPeyAv
p3915
aVandreaa1227
p3916
aVMichaelWoo24
p3917
aVlinlivalex
p3918
aVreddyvpr
p3919
aVsapra
p3920
aVMCadvising
p3921
aVillinoislaunch
p3922
aVCaerusIP
p3923
aVgokanishk
p3924
aVabhishe23422521
p3925
aVRavindraGowtham
p3926
aVvnrama
p3927
aVsimocusi
p3928
aVaditya_jackob
p3929
aVeXeperience
p3930
aViit_kim
p3931
aVToneSachin
p3932
aVifeanyi_
p3933
aVBCBSIL
p3934
aVSerialParoxysm
p3935
aVsandru_ru
p3936
aVAndreaPoet
p3937
aVjun900928
p3938
aVPreservationTV
p3939
aVCommons_IIT
p3940
aVdeg511
p3941
aVLittleCoMary
p3942
aVRaffaellaRS
p3943
aVUICnews
p3944
aV999anik999
p3945
aVsundarramachand
p3946
aVcmctechjobs
p3947
aVpatrickrvokaty
p3948
aVmswingler12
p3949
aVrrsreddyece
p3950
aVhouse0113
p3951
aVNCSSSMST
p3952
aVly86518
p3953
aVuncle_sports
p3954
aVYamm_manish
p3955
aVVikasNimare
p3956
aVsbled119
p3957
aVmuelle104
p3958
aVRaS_Crane
p3959
aVhsp3156
p3960
aVInteliclass
p3961
aVNGP_energy
p3962
aVCoachZeifert
p3963
aVmanmeetsays
p3964
aVJuliaNesheva
p3965
aVSayedBabu4
p3966
aVa_gastelum
p3967
aVyadiraornelas
p3968
aValexfreelander1
p3969
aVrealvj
p3970
aVHoneywell_Jobs
p3971
aVAgatiFurniture
p3972
aVtarunkumar17398
p3973
aVkushal_shah12
p3974
aVWenzhiZhao
p3975
aVLinaGrigaitis
p3976
aVudaydhakar01
p3977
aVdyingbreed323
p3978
aVchandi2025
p3979
aVlevilut15
p3980
aVIm_not_angry
p3981
aViit_bhu
p3982
aVBKcleanslate
p3983
aVvmclotuseducat2
p3984
aVavyas916
p3985
aVOmarShaik10
p3986
aVGrad_Programs
p3987
aVRobertK1996
p3988
aVnunekrishna476
p3989
aVsaileshpoudyal9
p3990
aVsteve_tak
p3991
aVUpbeatMusicChi
p3992
aVCorineBoelk
p3993
aVEsodha
p3994
aVvenu01005056
p3995
aVJavier_Parrondo
p3996
aVHMeese_IMechE
p3997
aViitwhiteboard
p3998
aVsomanylittles
p3999
aVKaaush
p4000
aVShivamIya
p4001
aVfiitjee_eastD
p4002
aVScientel_HR
p4003
aVSivakumarSvkrs
p4004
aVachieverspoint
p4005
aVHQ_Chicago
p4006
aVrcb_vinayak
p4007
aVfrotamari
p4008
aVLloyd889
p4009
aVNCWIT
p4010
aVa_common_man
p4011
aVfelizulhendri
p4012
aVaerosumeet
p4013
aVIADTschools
p4014
aVeKnowID
p4015
aVjsarthak8
p4016
aVExamPAD
p4017
aVnaresh_bng
p4018
aVEbullientErin
p4019
aVNapervilleCafe
p4020
aVJoaoafq
p4021
aVmaheshwar2509
p4022
aVMEIGANDAAN
p4023
aVMicheleZavatti
p4024
aVGCModelUN
p4025
aVKarenENelson
p4026
aVShikshaDotCom
p4027
aVcomputermasti
p4028
aVtriahousegirl
p4029
aVIITCampusLife
p4030
aVMLabatVAP
p4031
aVJewel_Shadow
p4032
aVichikhic
p4033
aVnaemesh
p4034
aVmohdtabish225
p4035
aVCareerExpress1
p4036
aVHydeParkHerald
p4037
aVokvisaus
p4038
aVRonaldo97000000
p4039
aVswathip1992
p4040
aVyashwanth2094
p4041
aVvs094900
p4042
aV4D_arch
p4043
aVWotNowApp
p4044
aVtalon_challenge
p4045
aVhappybincas
p4046
aVCatherine_WZH
p4047
aVPratikSah3
p4048
aVTakuSugimotoCIT
p4049
aVcirsemruiz
p4050
aVkimnykaihan
p4051
aVkeycodez
p4052
aVcgreenlight
p4053
aVAswaniVi
p4054
aVAgarwalBhawana
p4055
aVAbhishant2
p4056
aVMarisaHaire
p4057
aViamKSam
p4058
aVsanargoli
p4059
aVWendysCity
p4060
aVkunlewingo
p4061
aVThe_Primate
p4062
aVDamiobash
p4063
aVeepeshnema1
p4064
aVsharmapreetam
p4065
aVShreySingh3
p4066
aVchi_chaudhary
p4067
aVCamiloACortesG
p4068
aVSwetaRaheja
p4069
aVEcoGasFields
p4070
aVSvBhosikar
p4071
aVLivingDonorLove
p4072
aVjonkavanaugh
p4073
aVShringsumit
p4074
aVFtwFollowers
p4075
aVJojoJomana94
p4076
aVAmrMohsen95
p4077
aVorau
p4078
aVrblairrobert
p4079
aVStamic_wg
p4080
aVCollegeJosh
p4081
aVclandestinChem
p4082
aVbensiver
p4083
aVB2WD2009
p4084
aVzhusharenla
p4085
aVROHITBINAYMAHAL
p4086
aVMohitMs35
p4087
aVVickie_Austin
p4088
aVAAUWCampus
p4089
aVHugo_de_la_O
p4090
aV23f487edfaa244d
p4091
aVAIAChicago
p4092
aVshubhamwankha10
p4093
aVsenolkoc
p4094
aVypu_iiti
p4095
aVelexclub
p4096
aVIITGoddess
p4097
aVAshrafaamir_007
p4098
aVEdUSAUNIFOR
p4099
aVraj001992
p4100
aVrahulzam2003
p4101
aVClutch427R
p4102
aVcintron248
p4103
aVchemistram
p4104
aVarihant15
p4105
aVgbeloiu23
p4106
aVrevaa
p4107
aVintellectiamkt
p4108
aVbill_cardoso
p4109
aVeandicoop
p4110
aVKapilLamba
p4111
aVshoaibspreadlov
p4112
aVrkundu26
p4113
aVsilverspringnet
p4114
aVMSMD1992
p4115
aVSamTHBob
p4116
aVlokanem
p4117
aVcowboy_kehoe
p4118
aVMassUpdater
p4119
aVrajpatel3189
p4120
aVmayuhanhp
p4121
aVDGonsch
p4122
aVrashijain124
p4123
aVChrisMichele
p4124
aVsusheelpraneeth
p4125
aVUIStateRelation
p4126
aVPhreDsThoughts
p4127
aVSprintax_USA
p4128
aVddiwasaki
p4129
aVrthy_a
p4130
aVStartUpMagNY
p4131
aVvingorat
p4132
aVRaphaelleLoyer
p4133
aV_Malik_MB
p4134
aVrockystunner
p4135
aVzakimoh113
p4136
aVmsrapp
p4137
aVKMartinez_Esq
p4138
aVonkarkulkarnirr
p4139
aVchelstartupchi
p4140
aVfrafrii
p4141
aVPeter_Liujc
p4142
aVramkumarkvp
p4143
aVfaizanz14620
p4144
aVirenelohx
p4145
aVAIAAIIT
p4146
aVIDSforward
p4147
aVUnuboldChinzo
p4148
aVnessaraptor14
p4149
aVravitejavaitla
p4150
aVkathyeaustin
p4151
aV_travel_info
p4152
aViitcsdept
p4153
aVMeaganSarratt
p4154
aVNature_IL
p4155
aVhashmisaamir
p4156
aVPalomaNoir
p4157
aVhemuraghu22
p4158
aVVikrant_gaut
p4159
aVstevenson_ricky
p4160
aVnehamiracle794
p4161
aVMEESHENT
p4162
aVnuclearsciweek
p4163
aVRobert_Abrant
p4164
aVVINEETCRICKET
p4165
aVyaswanth1912
p4166
aVlibgirl16
p4167
aVRealWorld101
p4168
aVBrooksInstrmnt
p4169
aVrainedal
p4170
aVshawshank_38
p4171
aVSanjayGpm
p4172
aVkarnaalive15
p4173
aVSANJEEVRAO004
p4174
aVAshOrkuch
p4175
aVITCC_Chicago
p4176
aVpradeepmona
p4177
aVPau_GGd
p4178
aVTHEDIEGOAVILA
p4179
aVUnknown10Uw
p4180
aVRUBANRAJ_J
p4181
aVLyleEngineering
p4182
aVmadhavisingh188
p4183
aVstitch_mine
p4184
aVHEITMAN_Chicago
p4185
aVLoopintegration
p4186
aVLiqThoughts
p4187
aVSamanthaAtIIT
p4188
aVkirty_raj
p4189
aVbarinder30
p4190
aVLogicalisUS
p4191
aVNITINSINGHALAGR
p4192
aVSovaJaime
p4193
aVSShalini14
p4194
aVRoYaLRules
p4195
aVS_R_Behlim
p4196
aVAug3r
p4197
aVVivienGong
p4198
aVengineeringcol1
p4199
aVChicagoParks
p4200
aVAikramMaradny
p4201
aVvinnable
p4202
aVTrevorMauro
p4203
aVmarx_michael
p4204
aVKylerQueen
p4205
aVAdageTech
p4206
aVAronKarthik
p4207
aVSt_harpuia
p4208
aViitExposure
p4209
aVSpirituaLifeIIT
p4210
aVRobinRobinson
p4211
aVMasonResearch
p4212
aVpadblmin
p4213
aVprashanthbr
p4214
aVmcgmolly
p4215
aVsaljahen
p4216
aVNealSchaffer
p4217
aVananyatripathi7
p4218
aVjainh875
p4219
aVGreenFence_
p4220
aVLexiaIntl
p4221
aVAlyaAWoods
p4222
aVKiritKhant
p4223
aVHussain27540950
p4224
aVcnun999
p4225
aVinsomiagoku
p4226
aVPrashantkumarty
p4227
aVdrumcorpsnut
p4228
aVUCDavisCoE
p4229
aVjason_point5
p4230
aVEdUSARussia
p4231
aVExams4us
p4232
aVdjkvarma91
p4233
aVLynne_M_Meyer
p4234
aVprint
p4235
aVyoungxnick
p4236
aVOriginalSidd
p4237
aVrethinkingadmis
p4238
aVJDKFLY
p4239
aVSketchingBlog
p4240
aVBelding
p4241
aVMyCoedConnect
p4242
aVvickyysiu
p4243
aVvarungn
p4244
aVFarazHussain
p4245
aVdhruvesh_raj
p4246
aVnikodunham
p4247
aVkphsfan
p4248
aVVictoriaKMeyer
p4249
aVpozhil144
p4250
aVViolentPython
p4251
aVurbangreenloop
p4252
aVjeenal_lalan
p4253
aVAyeshaBanerjee6
p4254
aVTLC_USA
p4255
aVDebjaniBiswas
p4256
aVvaatlagi
p4257
aVIllinoisTechIM
p4258
aVjabiz_sh
p4259
aVChiKentFedSoc
p4260
aVAGSEAlumniAssoc
p4261
aVVincent_Aditama
p4262
aVRosieChhetri
p4263
aVsarahhammer5
p4264
aVmdnasir4u
p4265
aV984uiroxna
p4266
aVtushi31
p4267
aVhs1308
p4268
aVleibowitzdesign
p4269
aVhansungip
p4270
aVFractumAngelus
p4271
aVMysticNavyPier
p4272
aVshahzalak
p4273
aVZackRamirez1
p4274
aVFolta
p4275
aVEdUSABucaramang
p4276
aVgunnota
p4277
aVYogeshSharma290
p4278
aVMohammadFasahat
p4279
aVTeamPrecision
p4280
aVhanyu85
p4281
aVjhartig1
p4282
aVFReichert7
p4283
aVkeellakrishna
p4284
aVWoodvilleGuest
p4285
aVSHRIYANSHSRIVAS
p4286
aVASbhardwaj
p4287
aVshrivivekhr
p4288
aVDrRamBajaj
p4289
aVk1vara
p4290
aVCatalina718
p4291
aVScribblePost
p4292
aVBedloft
p4293
aVcampuswall
p4294
aVCFASchoolhouse
p4295
aVYL61
p4296
aVMangoCommander
p4297
aVBrandonPearlman
p4298
aVRammoorhty
p4299
aVInterIndustryUS
p4300
aVhealthysaurus
p4301
aVChicagoKentIPLS
p4302
aVvamsi_chittem
p4303
aVrakesh2419
p4304
aVjawale157
p4305
aVvijay_239
p4306
aVritanshyabh1017
p4307
aVTeeGreek
p4308
aVykc07081
p4309
aVVisitDecaturIL
p4310
aVzeasteducation
p4311
aVBlazingUzma
p4312
aVjamesshi93
p4313
aVpoljoco
p4314
aVdsogani
p4315
aVRayTrygstad
p4316
aVVinayPrabhakar2
p4317
aVHARI1008
p4318
aVMingchatleiba1
p4319
aVShivamkumarjai8
p4320
aVJessicaWisdom1
p4321
aVzhangnansdu
p4322
aVcritfutures
p4323
aVarchitects1
p4324
aVjaijochalissery
p4325
aVDeniseDOlson
p4326
aVChiChefLee
p4327
aVmiitsa
p4328
aVweishoujun
p4329
aVdhaval228
p4330
aVValagamba
p4331
aVPopsikleShop
p4332
aVIITSOAR_Zofie
p4333
aVTko1979
p4334
aVPegKeiner
p4335
aVbasanthfest
p4336
aVpranayraj09
p4337
aVicsCaroline
p4338
aVhowdouragu
p4339
aVIIT_HUM
p4340
aVorblivion
p4341
aVCampaignFor100
p4342
aVsouthmetroed
p4343
aVIITCEO
p4344
aVIITSOARZhenhuan
p4345
aVpunit19nov932
p4346
aVhamzaobaid
p4347
aVKashyapAsutosh
p4348
aVJain799Sk
p4349
aVDangeroOptimist
p4350
aVsergiogm_
p4351
aVtomsonlee0213
p4352
aVharimangalp
p4353
aVSukkiHong
p4354
aVeCellfellas
p4355
aVsachiReddy
p4356
aVBee_Rifai
p4357
aVAltamanuInc
p4358
aVhemant1456
p4359
aVstefaniasini
p4360
aVwhatnonsense2
p4361
aVPraneshj
p4362
aVengiinerd
p4363
aVhoffman4IL
p4364
aVKateBaran84
p4365
aVpace4edu
p4366
aVjonnyd68
p4367
aVELMANO2121
p4368
aVnhshams
p4369
aVmadhukar_desale
p4370
aVBruce_Wieland
p4371
aVdirk2823
p4372
aVtullman
p4373
aVgauravcreative
p4374
aVapdarshi
p4375
aVjosh_t_beck
p4376
aVPPCResourceHub
p4377
aVBrandon_Linder
p4378
aVStayVndrTheTide
p4379
aVrmbloom10
p4380
aVcschnie
p4381
aVEnergyIL
p4382
aVernagevondyan
p4383
aVsgogulam
p4384
aVNaumaaaaan
p4385
aVArmyChicagoXO
p4386
aVKiranNanjaiah
p4387
aVMagnanimouSatan
p4388
aVMenglinC
p4389
aVfarazmalik2009
p4390
aVccrealty2
p4391
aVGangplankGame
p4392
aVAACTE
p4393
aVShaanAshfak
p4394
aVNVHSAlumni
p4395
aVSaleh_Yousef
p4396
aVsarathsona
p4397
aVS____S________
p4398
aVChicagoImages
p4399
aVasaramnaveen
p4400
aViitdtd
p4401
aVktpapa
p4402
aV19febRituraj
p4403
aVSwapnilDehradun
p4404
aVRomit9
p4405
aVNRGCONNECTION
p4406
aVchicagochica
p4407
aVmohitkumardohar
p4408
aVathir1
p4409
aVnithinaliastin2
p4410
aVcrackiitjee
p4411
aVkarthikeya1998
p4412
aVcline0813
p4413
aVIllinoisTechRSF
p4414
aVTEDxWindyCity
p4415
aVgarypark20
p4416
aVTheClockNewsBIZ
p4417
aVUICscience
p4418
aVparinita575
p4419
aVshanki2k8
p4420
aVkmarie2013
p4421
aVEnergyFoundry
p4422
aVmichaelslore
p4423
aVStretchPatzelt
p4424
aVblossomkota
p4425
aVjuliomd
p4426
aVHajjFlemings
p4427
aVandresvn89
p4428
aVLeeyaJL
p4429
aVHopThePond
p4430
aValavivi
p4431
aVCopyeditor
p4432
aVDobbenMaria
p4433
aVjoanders2015
p4434
aVmathscience235
p4435
aVrodtorres
p4436
aVRichardMcGuire
p4437
aVRUBaseball2
p4438
aVrupamdas1992
p4439
aVCrimeAlertApp
p4440
aVvallikishore
p4441
aVneetip
p4442
aVtforlini
p4443
aVsharathmurthy5
p4444
aVramuias001
p4445
aVAirDiffusion
p4446
aVforesightdesign
p4447
aVchaitany554
p4448
aVANIL1964MYSORE
p4449
aVjitinkapila
p4450
aViitian_p
p4451
aVPilarbrunoR
p4452
aVsoldatovat
p4453
aVcompiledwrong
p4454
aVJusoorSY
p4455
aVC_Ness_
p4456
aVindian_kul
p4457
aVLoyolaChicago
p4458
aVcloudiit
p4459
aVtheonly_libra10
p4460
aVdoejo
p4461
aVTechnoSUM
p4462
aVVikramAajay
p4463
aVrickfazio
p4464
aVdl_magazine
p4465
aVPARCCPlace
p4466
aVjelledetaeye
p4467
aVSteverino888
p4468
aVSustainableTall
p4469
aVFFaaAn
p4470
aVpavelkukula
p4471
aVrajeevyadav892
p4472
aVNrGizeSmoothies
p4473
aVLegitApps
p4474
aVlidosh8
p4475
aVxrvbcn
p4476
aVhowstheliving
p4477
aVabbyraskin
p4478
aVMathWeekly
p4479
aVyangcheng922
p4480
aVJustdecide
p4481
aVSLROnlineDegree
p4482
aVNiloOoB
p4483
aV88adiYoga
p4484
aVSWHPN
p4485
aVayush287
p4486
aVAbhayJhouta
p4487
aVTraci_Flowers
p4488
aVNFA_Careers
p4489
aVVanessaAntar
p4490
aVKush_Herur
p4491
aVStartupAcctngAd
p4492
aVavgeek789
p4493
aVchetank456
p4494
aVcoolsiddarth93
p4495
aVILCharters
p4496
aVsanni_02
p4497
aVKymAbramsDesign
p4498
aVdouglascork1
p4499
aVDupeI
p4500
aVJeanneWhalen
p4501
aVnickrathert
p4502
aVChi_Innovation
p4503
aVerpscholar
p4504
aVtoreip
p4505
aV8himanshu8
p4506
aVAyalaNaphtali
p4507
aVTj_Dr
p4508
aVLuciusFEver
p4509
aVfanzexiang224
p4510
aVshahidashraf74
p4511
aVEjessieE
p4512
aVmonterrey2232
p4513
aVGeorgiouPaul
p4514
aVish_trendsetter
p4515
aVsahicorn
p4516
aVFloeyss
p4517
aVjuliebartocci
p4518
aVGeneral_Ed
p4519
aVauslctr
p4520
aVSanfordWolgel
p4521
aVErik_Schuessler
p4522
aVBryanJField
p4523
aVJamesHehehe
p4524
aVHaykey_Chicago
p4525
aVcyriltrosset
p4526
aVAumShrivastava
p4527
aVitsubraamani
p4528
aVFondazioneTLS
p4529
aVpatilyogesh17
p4530
aVgehuofficial
p4531
aVErSachinTiwari1
p4532
aVI_am_piyush7
p4533
aVICOlibrary
p4534
aVWhitlockArch
p4535
aVIssacDaimari
p4536
aVpeestuck
p4537
aVdorian_escplan
p4538
aVgtechstaffing
p4539
aVDengTingchang
p4540
aVJennyGooz
p4541
aVc_loeza
p4542
aVakshaymeshram1
p4543
aVfancherart
p4544
aVvrupesh1
p4545
aVmariai9898
p4546
aVudharani31
p4547
aValpharomio96
p4548
aVOldJewsOnStage
p4549
aVbraddatz37
p4550
aVltinysheep
p4551
aVIITMLA
p4552
aVinveneo
p4553
aVrahul12kv
p4554
aVDesignPlaceNews
p4555
aVNeelDShah
p4556
aViit
p4557
aVdincbasar
p4558
aVshailshah007
p4559
aVbrenda_gamboa
p4560
aVgsmithlive
p4561
aVgravitonspin
p4562
aVniktarbiz
p4563
aVJeffInHat
p4564
aVJorgibnz
p4565
aVMCHUEXZ
p4566
aVbillslater
p4567
aVhautesausage
p4568
aVZCollegeLife
p4569
aVINTLNETTERS
p4570
aVibrahim_ermenek
p4571
aVGoodlePlex
p4572
aVKULABHAY
p4573
aVCityYear
p4574
aVjasskiratsidhu
p4575
aVhotchiliesevent
p4576
aVglasshalfFULTON
p4577
aVheounsuk
p4578
aVSRStibal
p4579
aVbohua913
p4580
aVGalvinLibrary
p4581
aVHDPartners
p4582
aVkstango
p4583
aVtabishanand
p4584
aVkwrightPhD
p4585
aVThorntonsinc
p4586
aVmbp4games
p4587
aVsaranyarecruite
p4588
aVWESAdvisor
p4589
aVfollowkurt
p4590
aVINXPO
p4591
aVb_garber72
p4592
aVJJsList
p4593
aVpkaynunoo
p4594
aVnekkanti_teja
p4595
aVMunish_honey
p4596
aVDylanAMinard
p4597
aVdaniyakamran
p4598
aVSerenaMYL
p4599
aVChitvanSingh
p4600
aVAki_lles
p4601
aVSioLupine
p4602
aVScienceChicago
p4603
aVZishanAhmad
p4604
aVmohamaddehnee
p4605
aValan139126
p4606
aVArianaCydney
p4607
aVmingtaol
p4608
aVILBizImmigrant
p4609
aVmatewing
p4610
aVWonmin3
p4611
aVkapilDwaghmare
p4612
aVIPBlawg
p4613
aVhudmol
p4614
aVbthurman4
p4615
aVgokulraj113432
p4616
aVConcordG
p4617
aVrasbel11
p4618
aVEyoelAsfaw
p4619
aVitbyjacc
p4620
aVGetGarveys
p4621
aVNewEraAcademy1
p4622
aVkrajit1995
p4623
aVhishowintlltd
p4624
aVvikashk13837146
p4625
aVTurnitinadm
p4626
aVOptionsCity
p4627
aVDeepenK
p4628
aVLabBharadwaj
p4629
aVHughesIIT
p4630
aVROKcareers
p4631
aVcool_arin96
p4632
aVcareerprepare
p4633
aVltecila
p4634
aVqiaokan
p4635
aVmytoptentutor
p4636
aVArmandoLimon
p4637
aVNeuendanker
p4638
aVIITStuart
p4639
aVsumitjh52350701
p4640
aVOriginalRodo
p4641
aVgpdoyle
p4642
aVjitendrapawar91
p4643
aVGoisJesse
p4644
aVShadabFrnds
p4645
aVsekhar_1234
p4646
aVTimothyLalowski
p4647
aVK_uda001
p4648
aVGenesisClasses
p4649
aVgeomborgiapace4
p4650
aVyk9_kr
p4651
aVAviharsh186
p4652
aVonelost99
p4653
aVMatt34Bears
p4654
aVAltair0319
p4655
aVsaulpardo
p4656
aVMTwiko
p4657
aVBairuRajesh3
p4658
aVhuwit_lynn
p4659
aVdaniellefilipko
p4660
aVManjiriParalkar
p4661
aVOrigamiCapital
p4662
aVyvedpathak
p4663
aVdannyy1291
p4664
aVoOerooo
p4665
aVmkkunnal
p4666
aVPGaddewar
p4667
aVpartysnow
p4668
aVTechEase2012
p4669
aVshobhit_96
p4670
aVRexGyu
p4671
aVinspiredata7
p4672
aVraghuvemuri
p4673
aVNaveen_Antony_A
p4674
aVTushi_2010
p4675
aVChaitanyaCampus
p4676
aVDrywallCANADA1
p4677
aVAlex_lilloco
p4678
aVmarketEnomics
p4679
aVBarnRaiseID
p4680
aViamchiraggoyal
p4681
aVDoctorzeng
p4682
aVarrearstudent
p4683
aVRollKraft
p4684
aVharjee_s
p4685
aVNipun_Insa
p4686
aVcaffenee101
p4687
aVNumberNile12
p4688
aVbrcusa
p4689
aVshimerhomepage
p4690
aVW2College
p4691
aVISTCoalition
p4692
aVGuillerArroyo
p4693
aVVishwanathViraj
p4694
aVproton243
p4695
aVakgtweetzz
p4696
aVvenky_efarm
p4697
aVshopswindows
p4698
aVviteduin
p4699
aVSuzanneRRees
p4700
aVBiafranActivist
p4701
aVcindrella4u31
p4702
aVdavidbakerchi
p4703
aVcollegemoney
p4704
aVAmeliaMarple
p4705
aVJMahabaleshwar
p4706
aVdlaurit05
p4707
aVRedEandD
p4708
aVBruiser4Eq
p4709
aVgitaganesh7
p4710
aVKangmiaoSu
p4711
aVGabriellerz125
p4712
aV_sparkliness_
p4713
aVkarpilo
p4714
aVHidelocktake
p4715
aVKempHo2
p4716
aVjefferson_west
p4717
aVtsantitanosoy
p4718
aVUChicagoLocal
p4719
aVedukista
p4720
aVJim_Hensel
p4721
aVbernardmoon
p4722
aVRetail_Careers
p4723
aVJakeBruns1
p4724
aVjasduke_
p4725
aVbyumilove
p4726
aVHarrysFrozenD
p4727
aVDBEducation
p4728
aVbhaggu
p4729
aVaaron1025xq
p4730
aVonkar_11
p4731
aVLKidera
p4732
aVCPExpo
p4733
aVCRZZRS
p4734
aVpridkett
p4735
aVsanthooravi
p4736
aVMRDPE
p4737
aVnancyzhang2
p4738
aV074819755221326
p4739
aVcybercrimemanua
p4740
aVGetFooScienJobs
p4741
aVharsha30031994
p4742
aV007d9ad8eb5c437
p4743
aVmalchapure
p4744
aVOuttaTheBlu
p4745
aVUniLimIndia
p4746
aVshubhanshusharm
p4747
aVnourissa___
p4748
aVclaireystew
p4749
aVGregMakowski
p4750
aVlgg4027
p4751
aVsaxena_chicago
p4752
aVRichardMorrow
p4753
aVASO_IIT
p4754
aVranjan_srk
p4755
aVAnkur_Maheriya
p4756
aVjesushdz_
p4757
aVmelinadeoli
p4758
aVshovonvoips
p4759
aVShIITy_Shirts
p4760
aVpranay_dce
p4761
aVsatnams15356402
p4762
aVsagadudu
p4763
aVKelloggIDEA
p4764
aVMunirMuddasar
p4765
aVBU_Tweets
p4766
aVIEMC_Industrial
p4767
aVCHEdgeMakers
p4768
aVVSGlobalVision
p4769
aVStudyZone4U
p4770
aVIlchyshynVolo
p4771
aVRepBobbyRush
p4772
aVtheCHAtweets
p4773
aVmartamartinso
p4774
aVbjain96
p4775
aVBCOtweets
p4776
aVcp60188
p4777
aVPitIntelligence
p4778
aVsamsmarty111
p4779
aVddrotts
p4780
aVMarlabs_Campus
p4781
aVzobaer1989
p4782
aVLatinaConf
p4783
aVgrosas05
p4784
aVlloybra
p4785
aVanuvaresource
p4786
aVsadderly
p4787
aVdmaulikr
p4788
aVIL_MED_DISTRICT
p4789
aVrahuljaiswalbth
p4790
aVSnehaVilayur
p4791
aVsince1882
p4792
aVeleise0409
p4793
aVdeMorsier
p4794
aVabigailHkim
p4795
aVzhengpengusapp
p4796
aVmethespeedy
p4797
aVbreezydayz
p4798
aVIIT_Melanie
p4799
aVTexasTech
p4800
aVRepHultgren
p4801
aVHouWenyuan
p4802
aVchirag12513874
p4803
aVpeppergroup
p4804
aVarakausk
p4805
aVraghavkashyap4
p4806
aVWW_Lopez72
p4807
aVry_louis_bo
p4808
aVgestual_ity
p4809
aVJGonsch
p4810
aVzenginrocks
p4811
aVbjbarreto
p4812
aVmehmetaliozdem1
p4813
aVJohnCesarone
p4814
aVBoardShare
p4815
aVvinayakmehrotr1
p4816
aVCollege_Talent
p4817
aVGradImages
p4818
aViSeryapin
p4819
aVgauravkumarin
p4820
aVVOADesign
p4821
aVTweeTucker
p4822
aVReginaMamou
p4823
aVAnderson2198
p4824
aVISOG_Genius
p4825
aVStudyUSAcom
p4826
aVempxtrack
p4827
aVPriyaKumari8
p4828
aVkidsmentalhlth
p4829
aVRamiroH06585750
p4830
aVdhitterman
p4831
aVThiruUSK
p4832
aVkadambinia1
p4833
aVonlineresult
p4834
aVNHAalumni
p4835
aVjmkratochvil
p4836
aVsriram_s5
p4837
aVmalirah
p4838
aVkeshavpandya
p4839
aVpunto_critico_
p4840
aVkejia_liu
p4841
aVSATISHSHARMA999
p4842
aVChanki_ind
p4843
aVanilagupta8
p4844
aVChloeVAP
p4845
aVsmthng_systm
p4846
aVStudentLifeKC
p4847
aVColumnIT
p4848
aVBalganesh_Rztar
p4849
aVPrinceSiddhart5
p4850
aVdeepakreddy9999
p4851
aVHarshKeepers
p4852
aVWjjjaman
p4853
aVBethHanneken
p4854
aVJohnRDallasJr
p4855
aVdivyansh0206
p4856
aVnav_rattan
p4857
aVANSARI1006321
p4858
aVthemattachine
p4859
aVIdrisBis
p4860
aVParijat_basu
p4861
aVMoePoison
p4862
aVja_anaya
p4863
aVKStevenson14
p4864
aVGreatLakes_MBA
p4865
aVJerome301
p4866
aVkellyafletcher
p4867
aVbetanbauer
p4868
aVEhsanMemmedli91
p4869
aVMiracleMcJibbs
p4870
aVAmySegami
p4871
aVom_jitendra
p4872
aVa_khan465
p4873
aVSumit120890
p4874
aVhosion
p4875
aVaboutebihar
p4876
aVSVPTNT
p4877
aViamfablis
p4878
aVadityakj1
p4879
aVvinothvimal50
p4880
aVadvanceillinois
p4881
aVBigJoe13
p4882
aVColorCord
p4883
aVRAHULMITAWA
p4884
aVmunimservices
p4885
aVBeLalitSutrakar
p4886
aVGulzar78692
p4887
aVevyish
p4888
aVShaktiJuniorCol
p4889
aVgulammd317
p4890
aVdjvara95
p4891
aVharvdog92
p4892
aVapis_black
p4893
aV150NRiverside
p4894
aVchiragmakwana33
p4895
aVangelbob_
p4896
aVjwlebak
p4897
aVssnlubu
p4898
aVvyasvyas93
p4899
aVCorneliusByther
p4900
aVcareers360
p4901
aVSunnyVekhande
p4902
aVGuyMasterD
p4903
aVnighthawk_669
p4904
aVeivp_paris
p4905
aVisamorales0
p4906
aVtonivallsbio
p4907
aVEdUSAupdates
p4908
aVJMattocks_SPHR
p4909
aVgauravt05285828
p4910
aViustkmr
p4911
aVIITaCappella
p4912
aVptyagi13
p4913
aVthesecondrider
p4914
aVMRINVAMP
p4915
aVprasannabisen02
p4916
aVPhysicsFunda
p4917
aVcelam315
p4918
aVStrangeKelly
p4919
aVmuhammedalkabir
p4920
aVMyLifeIsSweet
p4921
aVDANI1648
p4922
aVupdentity
p4923
aVCrossRealms
p4924
aVlshelbee
p4925
aVaic_tech
p4926
aVJEE_Portal
p4927
aVTFTG_101
p4928
aVadil_vahora
p4929
aVlilman1014641
p4930
aVBroekere
p4931
aVjonthearchitect
p4932
aVplantvillepete
p4933
aV02_ankit
p4934
aVadarshdesai999
p4935
aVLoveStefSun
p4936
aVInternIllinois
p4937
aVBarrettaleslie
p4938
aVmanmar92
p4939
aVqiming0509
p4940
aVbharatedu
p4941
aVJasleenKalsQS
p4942
aVtedxnaperville
p4943
aVsarahwaha
p4944
aVLordPretzel
p4945
aVprateek_paras
p4946
aVA_thru_Zim
p4947
aVBetheChangeCS
p4948
aVOptions_Edu
p4949
aVsreechie
p4950
aVarchpaper
p4951
aVfahadkh60964861
p4952
aVmarfa182
p4953
aVsitu_gupta10
p4954
aVMrsHenk_HHS
p4955
aVKWhEfficiency
p4956
aVPleora
p4957
aVTim6ixx
p4958
aVPeterHadlaw
p4959
aVAhmadDoidoibob
p4960
aVTugayOzlcglyn
p4961
aVDRAJKUMARce
p4962
aVCollege101RJR
p4963
aVTareqer
p4964
aVluchoalejocali7
p4965
aVcspd
p4966
aVXiaoxuanLi
p4967
aVRiteshs7789
p4968
aVCaranPrecision
p4969
aVskoda1999tw
p4970
aVEmilianoReale
p4971
aVjuliakanouse
p4972
aVanjalicg2001
p4973
aVGr8LakesHerald
p4974
aVISHIR
p4975
aVVIJAY106860
p4976
aVParadiseLoveLDR
p4977
aVMODEC1
p4978
aVvishalsachdev
p4979
aVMessinaGroupInc
p4980
aVLindseyKirleis
p4981
aValumnidating
p4982
aVptnott
p4983
aVaribchaudhary
p4984
aVviral_vicky54
p4985
aVjavedakhtar17
p4986
aVRoyTitiksha
p4987
aVVinayBolla344
p4988
aVohhmycassie
p4989
aVHootCommunity
p4990
aVABPInTheCity
p4991
aVJoeMarr4
p4992
aVccfreestyle
p4993
aVILTechRobotics
p4994
aVb1tgh0st
p4995
aVcsufmcnair
p4996
aVDanSFlorescu
p4997
aVFWBarch
p4998
aVdannycuevas92
p4999
aVteerthishere
p5000
aVel_chinito22
p5001
aVDrQuebara
p5002
aVJP_Vielma
p5003
aVPI_Physik_Inst
p5004
aVchiarchitecture
p5005
aVibikechicagoapp
p5006
aVWomenInWireless
p5007
aVypchicago
p5008
aVdk44770
p5009
aViammonosij
p5010
aVGADC_Chicago
p5011
aVnverma945
p5012
aVRLDC_Region6
p5013
aVKentKJF
p5014
aVpascualcarlota
p5015
aVrkofman
p5016
aVDavidTuckerLtd
p5017
aVRobertJPeters
p5018
aVID8Big
p5019
aVknixbytes
p5020
aV_SamDay_
p5021
aVnothingdivideus
p5022
aVtonyz114
p5023
aVj_korah
p5024
aVshashi39796007
p5025
aVbanjara_king
p5026
aVtjhRCDD
p5027
aVFixYourOrg
p5028
aVCraigVodnik
p5029
aVFlowControl_Ind
p5030
aVmatthewheston
p5031
aVVFleischfresser
p5032
aVzenidiot99
p5033
aVGDIGrows
p5034
aVhiren123ify
p5035
aVMiesSociety
p5036
aV3b83eeab796c486
p5037
aVWBEZafternoon
p5038
aVgeluxp
p5039
aVharsh59v
p5040
aVgivingyoung
p5041
aVchhetri_naman
p5042
aVkrishnakayaking
p5043
aVbijugk
p5044
aVHeer_143
p5045
aVNIKHILMISHRA22
p5046
aVrubal733
p5047
aVNickP07
p5048
aVjayanthisss
p5049
aVPiaTamminen
p5050
aVlichenyu8586
p5051
aVMIGUELMMATOS
p5052
aVAndreaEsteve
p5053
aVlaoma86
p5054
aVSanthosh4Cbe
p5055
aVInfotsav_IIITM
p5056
aVrajresilient
p5057
aVvickyiitmadras
p5058
aVRoryJMcBride
p5059
aVKids_In_America
p5060
aVITATechTalent
p5061
aVIITWomensLAX
p5062
aVMuskieProgram
p5063
aVJasonMeiner
p5064
aVPaperPlaneCA
p5065
aVkhubidamania
p5066
aVITTJ
p5067
aVMehtaKhelan
p5068
aVGretchenBolanos
p5069
aVuw_alumni
p5070
aVFeoMayo
p5071
aVitsh_me
p5072
aVApurva1157
p5073
aVzertono
p5074
aVmlaneisthename
p5075
aVyesgunasekar
p5076
aVaamersaeedzafar
p5077
aVhkdave
p5078
aVessentialemily
p5079
aVsarah_bikes_usa
p5080
aVglobal_grounds
p5081
aVExamhook
p5082
aVSIAMJobBoard
p5083
aVCollegeKhabar
p5084
aVEdUSASyria
p5085
aVsterlingvbailey
p5086
aVaraj428
p5087
aVHarshBaghel2
p5088
aVsonu415_09
p5089
aVrk_theSunRay
p5090
aVStamped_Chicago
p5091
aVerrajeshkumar
p5092
aVparhamazimi_87
p5093
aVHaoran_IIT
p5094
aVEdwardKeegan
p5095
aVAllstateCareers
p5096
aVFashionPETRAcom
p5097
aVJobsAtSteelcase
p5098
aVhern_jenn
p5099
aVwbradsmith
p5100
aVTheEducatorJobs
p5101
aVcrynot_
p5102
aVAditya_veer_
p5103
aVlaura44433
p5104
aVeBlissFit
p5105
aVmacrbr
p5106
aVRokibul56278100
p5107
aVAndrewPacosta
p5108
aV1cE29147
p5109
aVCEOCoachIndia
p5110
aVvickypandit2509
p5111
aVExcellenceTax
p5112
aVJerrystanek
p5113
aVKunduUttam
p5114
aVmerakerr
p5115
aVITMO_IIT
p5116
aV10_west
p5117
aVgpierce1swede
p5118
aVhoopsmckay
p5119
aVshashika7
p5120
aVlaprosky
p5121
aVanimesh3920
p5122
aVcivillengineeri
p5123
aVRoederLu
p5124
aVvishwasgosain
p5125
aVShanjuChiang
p5126
aVIITSOARCongying
p5127
aVcupomobile
p5128
aValmamaterstore
p5129
aVMandaRoseDecker
p5130
aVtipuazhar
p5131
aVsouviksvkpal
p5132
aVAshishDoke
p5133
aVcharleszyz
p5134
aVKris_HuaxiaWang
p5135
aVKrushit2012
p5136
aVccachor2
p5137
aVjakewhitlatch
p5138
aVTrinadhaRaju
p5139
aVClemsonCoEngSci
p5140
aVFarhanArain
p5141
aVkhan_ishan7495
p5142
aVvspadhikari
p5143
aVRaviRan73874173
p5144
aVtelegramophone
p5145
aVgyanendradhakar
p5146
aVrsamer
p5147
aViitrbangalore
p5148
aVJimOlso43884487
p5149
aVingg_conticelli
p5150
aVankityadav15
p5151
aVIIT_DS
p5152
aVTheUXDaily
p5153
aVbcpio1996
p5154
aVGoodDollyShow
p5155
aVShaanraj3
p5156
aVmariselavalos
p5157
aVramakrishnaneng
p5158
aVMtMeraj
p5159
aVModuleXploited
p5160
aVallianzmoney
p5161
aVpannalasujith
p5162
aVScience_feature
p5163
aVYingxianLin
p5164
aVlfuqua17
p5165
aVStartupAmerica
p5166
aVAarnikko
p5167
aVbnddmn
p5168
aVshrikanth91
p5169
aVv1nc1c0
p5170
aVhemantsoni241
p5171
aVAndrewDMoyer
p5172
aVadriancabreraio
p5173
aV123srik
p5174
aVchell0722
p5175
aVWandaknifechic
p5176
aVromelfederer
p5177
aVAnkitKumarDube8
p5178
aVbishopiam13
p5179
aVMotioniitjee
p5180
aV3024e5acd13e4b8
p5181
aVCarlissaJackson
p5182
aVbhiAbhis
p5183
aVcollegefeedTW
p5184
aViitsga
p5185
aVCADgarage
p5186
aVleojat
p5187
aVSOFT_W_
p5188
aVwriss123triss
p5189
aVhistoftech
p5190
aVstevewolfe06
p5191
aVashishanand718
p5192
aVbclaird
p5193
aVRG1095
p5194
aVsarahmlowry
p5195
aVGeorge_Fang
p5196
aVsourabh12380
p5197
aVRavalJash
p5198
aVdrtcmohan
p5199
aVOmegasrus
p5200
aVTEDxIIT
p5201
aVZanyLemur
p5202
aVsizzorhappy1
p5203
aVbuttonedlip
p5204
aVelemenous
p5205
aVGallery400
p5206
aVvinitmp1
p5207
aVBFinnRiverNorth
p5208
aVstudentwatch
p5209
aVcaseencase
p5210
aVzephanjohnson
p5211
aVGabrielConners
p5212
aVEnzodellaRocca
p5213
aVSanya_Appy
p5214
aVY22Yan
p5215
aVaannuar91
p5216
aV4TheRustedNail
p5217
aVkaranmistry41
p5218
aV_AllyCouture
p5219
aVchermalaninku
p5220
aVJessica_IIT
p5221
aVDavid_Finol
p5222
aVCampusMall
p5223
aVlrounce
p5224
aVIITConduct
p5225
aVRIMServices
p5226
aVAbhishek13398
p5227
aVBioGoldTonics
p5228
aVPabloadt
p5229
aVScientiaEducare
p5230
aVArvindRannore
p5231
aVDahls1
p5232
aVBradenSenst
p5233
aVCherchiang
p5234
aVsivabala25
p5235
aVstIITch_IIT
p5236
aVybkilincarslan
p5237
aVChiCollections
p5238
aVYizzer_
p5239
aVpvclaldehyde
p5240
aVSuperior_Alumni
p5241
aVMiesGlassHouse
p5242
aVanuttaralearn
p5243
aVjialin0701
p5244
aVPatSnap
p5245
aVEIU_BGS
p5246
aVIrshadsaleji
p5247
aVMirageonboard
p5248
aVobgynbbq
p5249
aVRSANTHIYA3
p5250
aVdeltacollegian
p5251
aVInStat99
p5252
aVEDCTechnology
p5253
aVJaniceBakerRD
p5254
aVSHPERLDC6
p5255
aVartSTEM
p5256
aVGrahamTamia
p5257
aVMagazine_Mall
p5258
aVraosunita68
p5259
aVYSPWkndAcademy
p5260
aVIITSOAR_Leo
p5261
aVgmazzulladream
p5262
aVjongmass
p5263
aVthatanchor1906
p5264
aVguyshirjitsingh
p5265
aVAllalasrichandr
p5266
aVpandeymayankpa1
p5267
aVAnthonyGuidara
p5268
aVVaibhav153
p5269
aVwliad
p5270
aVsuper926
p5271
aVRUBENSPROMOTION
p5272
aVmagadhuni
p5273
aVraisahab354
p5274
aVcgupta2
p5275
aVVeredusCareers
p5276
aVabuelpeior
p5277
aVSharvesh9
p5278
aVVijaymecrockB
p5279
aVdbane1
p5280
aVyadavabhishek95
p5281
aVgerenciatodos
p5282
aVadam_bain
p5283
aVBiolaTorch
p5284
aVskrieder
p5285
aVsiti_newyr2015
p5286
aVgorillakid435
p5287
aVMohitFragy
p5288
aVhusssye3
p5289
aVMrHirman
p5290
aVrbnsingh234
p5291
aVenk0deme
p5292
aVParmarNavrattan
p5293
aVSonamM123
p5294
aVPublicRelateQ8
p5295
aVvipinchandra122
p5296
aVAnnaWohlfeil
p5297
aVmr_washers
p5298
aVIESinternships
p5299
aVadamstrohm
p5300
aVMonster
p5301
aVgalaxyjind
p5302
aVazocaro
p5303
aVdjcworkshop
p5304
aVericpnt
p5305
aVhn5hn42
p5306
aVdeeneshrk
p5307
aVAMacNtheChi
p5308
aVESchwartzUL
p5309
aVRodriguezEng
p5310
aVBakenraef
p5311
aVShlomoArgamon
p5312
aVsasawq21
p5313
aVaminrasooli
p5314
aVRCCDecaturIL
p5315
aVarmaanlohra
p5316
aVGTowersCPVA
p5317
aVAmyDaniels6
p5318
aVIITHumanScience
p5319
aVSTEM_Launch
p5320
aVseanhopp
p5321
aVGrantBBunker
p5322
aVNUCATSInstitute
p5323
aVfooltoo
p5324
aVbaolovescake
p5325
aVmotivater_vijju
p5326
aVattyboyd_odom
p5327
aVFormech
p5328
aVvish204218169
p5329
aVgrowthofbihar
p5330
aVAparnaSingh92
p5331
aVRoyXu90
p5332
aVOpt4STEM
p5333
aVAlyssaMiner31
p5334
aVriju_bailung
p5335
aVIITProjectLEAD
p5336
aVimustdog2
p5337
aVJenMama1
p5338
aVChicagoCI
p5339
aVlawrence_lorho
p5340
aVkeyurgohel8
p5341
aVkrvachhani56
p5342
aVawelch_iit
p5343
aVsokojac88
p5344
aVRoyChillin_
p5345
aVJaysunVeronesi
p5346
aVtweetmoku
p5347
aVAlumniCapital
p5348
aVzhouzhen24
p5349
aV18thPilot
p5350
aVWinny_Pratiwi
p5351
aVErikeithz
p5352
aVOTSSupportDesk
p5353
aVton3012
p5354
aV_meegan_
p5355
aVarts_and_smarts
p5356
aVEricMHetzel
p5357
aVjanellecaminker
p5358
aVrocklikechin
p5359
aVUGMONGO
p5360
aVnihanhamdi
p5361
aVIIT_Today
p5362
aVKristenCorpo
p5363
aVScholarships_T
p5364
aVFormula_Hybrid
p5365
aVabduljalal9684
p5366
aVTheClockNewsNet
p5367
aVSmartGridMotion
p5368
aVMacCormac_Col
p5369
aVgerenciavidal
p5370
aVucsantabarbara
p5371
aVmisszanette
p5372
aVabhishekg_cool
p5373
aVAshmalMVA
p5374
aVRvndrsain
p5375
aVmaster8work
p5376
aVIITSOAR_Rahul
p5377
aVmaxtm
p5378
aVadam_petry
p5379
aVEcoCAR3
p5380
aVConnexioMedia
p5381
aVravidabbiroo
p5382
aVCCCTROOP
p5383
aVyoghashree1
p5384
aVForestPresFund
p5385
aVassignmentcrack
p5386
aVdr_stephanieN
p5387
aVAnandBarman
p5388
aVTomizback
p5389
aV99KishorKumar
p5390
aVGlobalHigherEd
p5391
aVTradingAd
p5392
aVYi_Qin_
p5393
aVpierides
p5394
aVBenJerrysTour
p5395
aVChetK
p5396
aVanna_corey
p5397
aVIITvolleyball
p5398
aVSankalpa_Kumar
p5399
aVdream314
p5400
aVBWGrantPark
p5401
aVkayhan_tweets
p5402
aVLukeMPA
p5403
aVBenjaminBathke
p5404
aVMunchMonarch
p5405
aVreginamktgchick
p5406
aVPlodhi111Pk
p5407
aVCCC10KSB
p5408
aVDPeckVAC
p5409
aVcareersherpa
p5410
aVhzbob92
p5411
aVunifysystems
p5412
aVKaryllh
p5413
aVkrishboopathi
p5414
aVjharna11jain
p5415
aVStudentMoney101
p5416
aVSmartGridNetwrk
p5417
aVzhouwenxi
p5418
aVJodiHoulihan
p5419
aVericbru
p5420
aVktclear
p5421
aVComCapInv
p5422
aVErlynOnline
p5423
aVOldGirlOwen
p5424
aVmahendr50297312
p5425
aVrubiny666
p5426
aVthomasplanchetb
p5427
aVshadibeidas
p5428
aVLetsanify
p5429
aV987Syrian
p5430
aVvinay9650833806
p5431
aVChicagoACHE
p5432
aVNathanMcMahon6
p5433
aVkatiemsjohnson
p5434
aVUdayanraje2892
p5435
aVhimanipawar3
p5436
aVFC_mba
p5437
aVGiGisBakeShop
p5438
aVSeksariaKeshav
p5439
aVyesvishalmishra
p5440
aVJTremmel
p5441
aVpthom
p5442
aVnycturing
p5443
aVRajputm569Manoj
p5444
aVkjstetz
p5445
aVrahulpv007
p5446
aVmanirajan
p5447
aVLFCareers
p5448
aVwidianto1980
p5449
aVteck528
p5450
aVIITGradRecruit
p5451
aVthinkaloudux
p5452
aVprahlad67
p5453
aVVirginiaLByrne
p5454
aVLew_E_Brown
p5455
aVAndreaFarnan
p5456
aVrohit4100
p5457
aVbaugheyes
p5458
aVArpithasmiles
p5459
aVA_Bomb__
p5460
aVniucareers
p5461
aVtwtedesso
p5462
aVCanyonDG
p5463
aVGoMoveHa
p5464
aVKateHamilton01
p5465
aVmophistolee
p5466
aVraynor08
p5467
aVMJasonHouck
p5468
aVInternshippk
p5469
aVstarryning
p5470
aVNishant14121
p5471
aVzkfing
p5472
aVs_a_a_d_y_y
p5473
aVdetermomed
p5474
aVACTSNET
p5475
aVIampiyush94
p5476
aVniravpmalsattar
p5477
aVnobelsaravanan
p5478
aVnjan34s
p5479
aV_itslesleyy
p5480
aVKraigVW
p5481
aVotrevizo
p5482
aVcodesproutplus
p5483
aVharikiranraju
p5484
aVamangupta8948
p5485
aVPhilonious09
p5486
aVIITJonKavanaugh
p5487
aVpattyacton
p5488
aVMySchoolApp
p5489
aVsuramacosta
p5490
aVkatsjoh
p5491
aVphysicsgrip
p5492
aVSpiritNavyPier
p5493
aVArsnar
p5494
aVvyaskartik328
p5495
aVEduUSAKuwait
p5496
aVladybug3699
p5497
aVchinna_muthu
p5498
aVmanishkohar44
p5499
aVsundeepdabas
p5500
aVgauravgangwar75
p5501
aVshridhar_9192
p5502
aVmlines8
p5503
aVArleneH19
p5504
aVhetap91
p5505
aVvivekashoka
p5506
aVerpramodsharma
p5507
aVA7mos2002
p5508
aVerich_chicago
p5509
aVPradeepansv
p5510
aVpenelopepiotrow
p5511
aVeinesellesenie
p5512
aVPana_Rizos
p5513
aVjwbespoke
p5514
aVhrithik_das
p5515
aV440CHO
p5516
aVTSPconf
p5517
aVdarshangreat
p5518
aVFoodMatters_
p5519
aVIITCAC
p5520
aVmiaokatwang
p5521
aVshivamkeshri167
p5522
aVChicagoKentAlum
p5523
aVdandz1991
p5524
aVIITOL_Jorge
p5525
aValnemangi
p5526
aVashrules24
p5527
aVGSRarch
p5528
aVAxion_RMS
p5529
aVnickirosie
p5530
aVaakliney2013
p5531
aVjcscho22
p5532
aVIIITianDotCom
p5533
aVnvalusa
p5534
aVBobBell
p5535
aVchrisroyal1
p5536
aVSyriaDeeply
p5537
aVshubhamagar1993
p5538
aVFromBmoore
p5539
aVlissabauer
p5540
aVBABU72975839
p5541
aVSJPiit
p5542
aVnaik183
p5543
aVupdlochan1
p5544
aVSegami2
p5545
aVTizianoCattaneo
p5546
aVxuchang970621
p5547
aVdwitimishra
p5548
aVapps4chicago
p5549
aVPearsonPTE
p5550
aVHIExChampaign
p5551
aVLouisPotempa
p5552
aVSameCupDrink3
p5553
aVKueso45
p5554
aVshubhamojha67
p5555
aVNeverhoodie
p5556
aVDominosHighwood
p5557
aVpintojoey
p5558
aVJitendraDayma
p5559
aVhabitatcompany
p5560
aVbinkthecubfan
p5561
aVWong_di
p5562
aVsanjayrajarya
p5563
aVaju25
p5564
aVwithlovedessert
p5565
aVDARISAROHITH
p5566
aVIITSOAR_Ola
p5567
aVInnogage
p5568
aVconstancewu1
p5569
aValzIllinois
p5570
aVbford1018
p5571
aVPRAVEENCHANDRA9
p5572
aVkzannat2
p5573
aVhemanshugupta07
p5574
aVFE_Solution
p5575
aVanshuma3110
p5576
aVsergiosanguino
p5577
aVUtsavPGandhi
p5578
aVLuHites
p5579
aVImtisalshaikh
p5580
aVsandrakum
p5581
aVRDeletre
p5582
aVMuduoS
p5583
aVpalashnaha2014
p5584
aVDHiranwal
p5585
aVTaliaEvedCEO
p5586
aVCeciliaCopeland
p5587
aV16786Raju
p5588
aVssparq_kwatt
p5589
aVsivadpani
p5590
aVdnpabari
p5591
aVkalelshubham
p5592
aVdineshchandmee
p5593
aVeharpstead
p5594
aVrajan_shreeyeh
p5595
aVaa1234bbc
p5596
aVzhanqicq
p5597
aVarthurperry
p5598
aVcaseyforeal
p5599
aVMonaachichi
p5600
aVIamgangal
p5601
aVaaloksinghvi
p5602
aVrodgersusa
p5603
aVBobbyLRushMC
p5604
aVTheCircleBiola
p5605
aVamitjazzypeter
p5606
aVmichael_siem
p5607
aValexismarmoldr
p5608
aVvmallikarjuna23
p5609
aVRCEELURU
p5610
aVmeramirezl
p5611
aVnoelreeves
p5612
aVid22
p5613
aVtianchengjj
p5614
aVmarkakaminski
p5615
aVPattersonLaw
p5616
aVshaggysawa
p5617
aVExecClubChicago
p5618
aVDany3R9
p5619
aVDominickCaponi
p5620
aVsalufir
p5621
aVASilvagonzalez
p5622
aVwortiz00
p5623
aVgateeii
p5624
aVm_anitha_rao
p5625
aVFearlessInChi
p5626
aVLab_Design_PM
p5627
aVaravind30p
p5628
aVBermudaLamb
p5629
aVAliafadel2015
p5630
aVrluislopez
p5631
aVmarciosantanas
p5632
aVMRAJARAJEN
p5633
aVAcadembot
p5634
aVTechWriterNealy
p5635
aVanisha_3987
p5636
aVSouvikDeb7
p5637
aVAlt_copter
p5638
aVCMAA_CMIT
p5639
aVyinyanlong
p5640
aVPurinaCareers
p5641
aVhoomanghasemi1
p5642
aVltuarchdesign
p5643
aVbualumni
p5644
aVCASEnergy
p5645
aVJEELaunchPad
p5646
aVWDavid_IllTech
p5647
aVCCSpeedDan
p5648
aVArqtaEnfurecida
p5649
aVcliffordlull
p5650
aVRealEsperanza1
p5651
aVWorldBizChicago
p5652
aVSrinusu62Cnu
p5653
aVDeepk432
p5654
aVmhchavarria
p5655
aVkarenmderksen
p5656
aVRachelBayles
p5657
aVAngelTranscript
p5658
aVnagendra0116
p5659
aVpasshr3833
p5660
aVjaffarlone11
p5661
aVjoy_357
p5662
aVabhishek1o
p5663
aVWernerSobek
p5664
aVgeo_game
p5665
aVfariddin
p5666
aVahmedi1034
p5667
aVAnjalyjohn91
p5668
aVTonyKalai
p5669
aVlahwahleh
p5670
aVsunilmishrandri
p5671
aVst_pd
p5672
aVmanoj_mahanta
p5673
aVaap_ravi
p5674
aVrockstarpaula
p5675
aVJDACUSTOM
p5676
aVpsael
p5677
aVdanielflopez1
p5678
aVpggagan
p5679
aVIam_GaneshGore
p5680
aVShavaraCom
p5681
aVthisismydejavu
p5682
aVjohncummings06
p5683
aVlisanotter
p5684
aV_Nita17x
p5685
aVAKSHAY3021
p5686
aVgangadharnaik12
p5687
aVMolexYPGLisle
p5688
aVCascadia
p5689
aVCDKJobs
p5690
aVSamiChavezGil
p5691
aVmazici
p5692
aVdeepzhardcore
p5693
aVsciencetechidea
p5694
aVelocatelli
p5695
aVEllingtonErinm
p5696
aVElamDauw
p5697
aVMockGuru
p5698
aVchehako
p5699
aVchandeshwareee
p5700
aVuchidaatsuto1
p5701
aVthakurchandan07
p5702
aVmohit_sharama
p5703
aVobinem
p5704
aVAdityaSabadra
p5705
aVGTRTCDUMKA
p5706
aVekeleh
p5707
aVJarallah_Ali
p5708
aVPepperConstruct
p5709
aVsouravkhandelw5
p5710
aVsukcess_project
p5711
aVNaumaannn
p5712
aVJAHNArch
p5713
aVgrowtuityinc
p5714
aVpeaktechnical
p5715
aVtestabhyas
p5716
aVJimmyDamal
p5717
aVtemiz33
p5718
aV97a6d254604e466
p5719
aVChgoBedBugFindr
p5720
aVHalakeKumar
p5721
aVShreyasChaturv1
p5722
aVturquoiseuc
p5723
aViesvenki
p5724
aVruchisinglars
p5725
aVshubhamgamey
p5726
aVjijinsoman
p5727
aVManiBadvela
p5728
aVScholarshipPost
p5729
aVChicagoScholars
p5730
aVIITSocSciences
p5731
aVehsjournal
p5732
aVmichaelee
p5733
aVbipulveera
p5734
aVSMCollegeClinic
p5735
aVAswinrajeevan
p5736
aVvenkyrecruiter
p5737
aVWeD0ntHate
p5738
aVNehalSinghal
p5739
aVmeaman1212
p5740
aVbsasank89
p5741
aVmuppani
p5742
aVandrewshloke
p5743
aVmzshareef1
p5744
aVcampuspride
p5745
aVarpitsh98894985
p5746
aVOldFranMurph
p5747
aVosmanzahid3
p5748
aVwordfam5
p5749
aVyuzailiang
p5750
aVokanderson
p5751
aVscientiaghy
p5752
aVNirali14
p5753
aVELPCenter
p5754
aVTma10_
p5755
aVCSEPLibrary
p5756
aVFABLOSPHOTO
p5757
aVWheatonChamber
p5758
aVPoojaMankani919
p5759
aVRicardodvj
p5760
aVZiyaoJiang
p5761
aVEZStudentLife
p5762
aVMathewWeber
p5763
aVshankararyal12
p5764
aVNextemployer
p5765
aVSBCETODISHA
p5766
aViitbc
p5767
aVMelissaLeeIIT
p5768
aVKentThemis
p5769
aVshuklashrikant
p5770
aVkylekoning
p5771
aVvinayduttav
p5772
aVaasfuncard
p5773
aVDerekDiesner
p5774
aVXorbixTech
p5775
aVstructuralgroup
p5776
aVCStudentsRock
p5777
aVamericanscitech
p5778
aVdjrauch7
p5779
aVJessieHuang1
p5780
aVseemaku1705
p5781
aVtianrui60
p5782
aVJack_CYA
p5783
aVandresfsaav
p5784
aVkeithjbowman
p5785
aVprabarider007
p5786
aVjiten_gahlot
p5787
aVmycollegetoday
p5788
aVJMessingerVAC
p5789
aVjchristiaan
p5790
aVZeroChampaign
p5791
aVTechweekCHI
p5792
aVbogyb
p5793
aVDrManlove
p5794
aVnycfirst
p5795
aVakhilsingh1989
p5796
aVsigaracay
p5797
aVbalciuTX
p5798
aVkundan8095
p5799
aVjwelin
p5800
aVbhanupriysingh
p5801
aVsadhna333
p5802
aVavsheth11
p5803
aVsrilak_r
p5804
aVRJGreenfield1
p5805
aVmtracy90
p5806
aVmizyaya73
p5807
aVMiguelPalillero
p5808
aVtukuaman
p5809
aVmahikc9172
p5810
aVCybuRichli
p5811
aVSRMTeamHumanoid
p5812
aVAbroadView
p5813
aVBoidus
p5814
aVcarriebrkich
p5815
aVTonijriley
p5816
aVLuciaLove2011
p5817
aVChiTribNation
p5818
aVMarinaArnaldosO
p5819
aVICV_AVSolutions
p5820
aVendernalcacigil
p5821
aVpccnamanda
p5822
aVIllinoisShade
p5823
aVsusutinwin
p5824
aVconnollyp14
p5825
aVdineshdini60
p5826
aVKannan3011
p5827
aVlinchao_qi
p5828
aVkhizarshad
p5829
aVecellpioneer
p5830
aVKartikSharma88
p5831
aVmBeck6765
p5832
aVmohdimran55
p5833
aVamecccet
p5834
aVAuredetur
p5835
aVwarrken
p5836
aVJonMDaniels
p5837
aVJeff_Echols
p5838
aVsjha222
p5839
aVbasar2008
p5840
aVsamsleva
p5841
aVamreshsharma
p5842
aVtarunsa37078658
p5843
aVRoyalShubham_
p5844
aVDanielAPTanque
p5845
aVvenkykasireddy
p5846
aVkilltjc47
p5847
aVIAMBBD2
p5848
aVHarshilPandya30
p5849
aVusacolumbus69
p5850
aVVidgeoApp
p5851
aVSpendScience
p5852
aVmjobregon
p5853
aVyouthawaker
p5854
aVkarlstolley
p5855
aVzizipinkzi
p5856
aVsach2412
p5857
aVMoPed_MoProblem
p5858
aVAtkinsGraduates
p5859
aVIIT_Tech_Park
p5860
aVGagePark4Reform
p5861
aVSumuDas
p5862
aVryanjhayman
p5863
aVdavide_zanardo
p5864
aVRittickDatta
p5865
aV3dcampustours
p5866
aVgopeppers
p5867
aVRunanyan9
p5868
aVEEChrisB
p5869
aVGovCareerPaths
p5870
aVaki_419
p5871
aVWisdomLe
p5872
aVevents_exhibit
p5873
aVZhouCd
p5874
aVGREATUNIVERSITY
p5875
aVINSIGHTPHYSICS
p5876
aVcosettesaurus
p5877
aVKefeiHuang
p5878
aVYolaChicago
p5879
aVDawnKYoung
p5880
aVISPPChicago
p5881
aVmaheshask
p5882
aVakshith_rock
p5883
aVfabertho
p5884
aVJezebel1115
p5885
aVstrawberrybev
p5886
aVeinna314
p5887
aVramirez_458
p5888
aVjeniferjaneyoun
p5889
aVinayemm
p5890
aVkarinigirish
p5891
aVtsm96tusshar
p5892
aVnandibaba
p5893
aVCFA_Chicago
p5894
aVKoppaRajesh
p5895
aVbikash3600000
p5896
aVsameerkumaranan
p5897
aVleahbeah1234
p5898
aVpmerrion
p5899
aVloica0802
p5900
aVSika
p5901
aVkarishma_kumar
p5902
aVstudyatctu
p5903
aVAkhil_Soni1
p5904
aVEzeSoft_Careers
p5905
aVAmyMartin021
p5906
aVxuyikyo
p5907
aVThechopraschd
p5908
aVEdUSAEcuador
p5909
aVsgr_thakkar
p5910
aVTamerWMarshma
p5911
aVJiveDavis
p5912
aVmpdStudios
p5913
aV_GavinHu
p5914
aVPRATHAPUBDT
p5915
aVdawveedscully
p5916
aVchris_manoj
p5917
aVsofaexpo
p5918
aVmanoj_k_jaiswal
p5919
aVSamartheduakola
p5920
aVLiMa34364209
p5921
aVbuilt_envi
p5922
aVsaadhq20
p5923
aViitmsa
p5924
aVyakindu
p5925
aV2ndPresChicago
p5926
aVLinuxworldindia
p5927
aVmarshalllawe
p5928
aVAirRunMobile
p5929
aVHavenKAllen
p5930
aVjayantprakash7
p5931
aVaantony02
p5932
aV2609Mahi
p5933
aVcecr_live
p5934
aVkeb11104
p5935
aV64thAirRefuelSq
p5936
aVTjagadeesh1729
p5937
aVmcmguerrero
p5938
aVakaashpuri
p5939
aVLRSrecycles
p5940
aVlakshyaberi
p5941
aVPhysicsConnect
p5942
aVteslacoiled
p5943
aVAnkitShikhar1
p5944
aVDan_TechTrade
p5945
aVahmasa0818
p5946
aVTheNoblePirate
p5947
aVwilsj342
p5948
aVe51fe0008a3b485
p5949
aVmaruthishkv
p5950
aVfanaha
p5951
aVapeman_sapien
p5952
aVRoswell128Peter
p5953
aVastavcm
p5954
aVissidhu4
p5955
aVhumo_rales
p5956
aVa3ce6fa7c494445
p5957
aVjudsonalthoff
p5958
aVzainabturabali
p5959
aVorangemagazine
p5960
aVCodeVita2013
p5961
aVxoxojudith_13
p5962
aVIITSOFA
p5963
aVEndlessUrbia
p5964
aVRohitMordia
p5965
aVWenjun_Xue
p5966
aVFentonHS
p5967
aVShowPlaceICON
p5968
aVUS2020_Chicago
p5969
aVThomsoIITR
p5970
aVheattreatjay
p5971
aVAmanKas57257280
p5972
aVamar_ganji
p5973
aVarturoveiga
p5974
aVaboutsourav
p5975
aVwolffpack71
p5976
aVecorson
p5977
aVpaulineatty
p5978
aVNovitaTraining
p5979
aViitmpsalab
p5980
aVjaneeerwin
p5981
aVpruthvee20
p5982
aVeasydataIN
p5983
aVnitkinfo
p5984
aVDhavalKadia
p5985
aVPivotalChicago
p5986
aVCharlesHanna
p5987
aVChicagoCIE
p5988
aVVizard_dhawan
p5989
aVspkumar439
p5990
aVdharavath97
p5991
aVmanuvora
p5992
aVA20281780
p5993
aVlyric7012
p5994
aVyzhan125
p5995
aVsahilansari1184
p5996
aVmpearson83
p5997
aVteamloletaroca
p5998
aVA_P_K_
p5999
aVPBDWorldwide
p6000
aVshubhampoddar47
p6001
aVChicago_Cupcake
p6002
aVLifelineEnergy
p6003
aVxavii
p6004
aVIIT_RTC_Conf
p6005
aVlouismchugh
p6006
aVGauravraj89Raj
p6007
aVsinarquitectura
p6008
aVcmshood
p6009
aVsonalshikari
p6010
aVShivamS35159794
p6011
aVMoneebRahhal
p6012
aVemiliosasof
p6013
aVcesarchimello
p6014
aVqli31
p6015
aVjjiandersson
p6016
aVSMACdat109
p6017
aVKevBASSy
p6018
aVRitamPodder
p6019
aVitsoluation
p6020
aVa_vahlis
p6021
aVevil_slacker
p6022
aVhuangdongfang
p6023
aVAnnieS_IIT
p6024
aVGusAlvarez7
p6025
aVYUExecutiveMBA
p6026
aVGrahamFound
p6027
aVGustheman
p6028
aVf7733
p6029
aVwallockpatellaw
p6030
aVloretang1
p6031
aVjain_sankalp65
p6032
aVmostafaalman
p6033
aVThe_CIT
p6034
aVnquir
p6035
aVDpDeepti
p6036
aVMattioda5
p6037
aVjimchen511
p6038
aVsaurabhmisra
p6039
aVjjaffke
p6040
aV925inMotion
p6041
aVPoweredAlumni
p6042
aVsheena_enriquez
p6043
aVRHHSJBJones
p6044
aVpradeepsarabar
p6045
aVNareshChadokar
p6046
aVashley_cahoony
p6047
aVAndyWolanski
p6048
aVIanSeq
p6049
aVDorm_In_A_Box
p6050
aVkrgauravraj32
p6051
aVArunkrns
p6052
aVLynnCHEN723
p6053
aVprakhart4
p6054
aVSWAPNIIILL
p6055
aVILASCD
p6056
aVtweejibu
p6057
aVchicagobotanic
p6058
aVthisnaturalista
p6059
aVLMH1583
p6060
aVwater_DOM
p6061
aVmissdjfarce
p6062
aVthegueramexican
p6063
aVsridhartwins
p6064
aVLaoluAdeola
p6065
aVWarrenBent
p6066
aVAvinasharma1994
p6067
aVDolldendio
p6068
aVBob_Bookman
p6069
aVabhinav_nicky
p6070
aVLMabry4
p6071
aVPsiChi_IIT
p6072
aVminkyusong82
p6073
aVericokamau
p6074
aVLuGraceWang
p6075
aVgannonam
p6076
aVbarkjef
p6077
aVJobRadillo
p6078
aVRASOOLSALEEMU
p6079
aVCBcollegewise
p6080
aVDiscoverDuPage
p6081
aVbhargav10
p6082
aVRTSGroup
p6083
aVShaneMEagan
p6084
aVrawkxtar18
p6085
aVpoizenisxkandee
p6086
aVAlexAGCarlson
p6087
aVProjExplore
p6088
aVekleezy
p6089
aVZero2Five_
p6090
aVghada1627
p6091
aVAIAIllinois
p6092
aVhemalrocks81190
p6093
aVTalk_A_Phone
p6094
aVvan_alen
p6095
aVmrosenfeld11
p6096
aVFlywireCo
p6097
aVSkolSystem
p6098
aVSammanHani
p6099
aVimAdi54
p6100
aVsun_yukun
p6101
aVNinzaSumit
p6102
aVgaurav1737
p6103
aVAgileTonya
p6104
aVSankaramDas
p6105
aVmanar0508
p6106
aVAnkitdimri4
p6107
aVkakapradeep100
p6108
aVGraceguin
p6109
aVFADS_ILregion
p6110
aVcontact2sneh
p6111
aVwtmcgee
p6112
aVoctchitect
p6113
aVLIVE3R
p6114
aVScholarship_US
p6115
aVTom_QuestCC
p6116
aVom_vnit
p6117
aVAliahamed23
p6118
aVStudyBuddyAsia
p6119
aVSUPRIYASAURAV
p6120
aVh9r1kjk
p6121
aVdebgpi
p6122
aVOutsideCal
p6123
aVIvoryOnyx
p6124
aVGet5Degrees
p6125
aVnairrittym
p6126
aVguhAMIT
p6127
aVMatheusAFSilva
p6128
aVmahak_patil
p6129
aVShubham2512s
p6130
aVhollyce_chitech
p6131
aVDeepikaraniP
p6132
aVDAMAS91
p6133
aVNAE_DC
p6134
aV384663
p6135
aVabhivor
p6136
aVdanbockenfeld
p6137
aVrajkmsaini
p6138
aVer1p
p6139
aVashish_kr_umrao
p6140
aVnavspavs
p6141
aVhardiksp28
p6142
aVbalaji2603
p6143
aVchand_goutham
p6144
aVmanoharvarma222
p6145
aVlaylasteddy
p6146
aVareemtea
p6147
aVIAT_TUGraz
p6148
aVsiddhantrana28
p6149
aVartbugg
p6150
aVDougCirqueira
p6151
aVvencyley
p6152
aVBreadShed
p6153
aVmorgan23peters
p6154
aVNameTagWizard
p6155
aVMocha_Laveau
p6156
aVSASFNY_STEM
p6157
aVChrisCwilli15
p6158
aVKassieGao
p6159
aVCampuseek
p6160
aVmunishgupta8
p6161
aVIITSOAR_Dakota
p6162
aVamitchandravans
p6163
aVRSalastekar
p6164
aVdantejcp
p6165
aVDC_EXPERTS
p6166
aVbiubiuwhisper
p6167
aVUNAMChicago
p6168
aVMdRashidHussa10
p6169
aVpeacesoutheast
p6170
aVChicago_Reader
p6171
aViitk_ee
p6172
aVaugten95
p6173
aVbroadcoalition
p6174
aVAUSLChicago
p6175
aVtiagomccs
p6176
aVsxh1991
p6177
aVPiyushsharmaIT
p6178
aVLINKUnlimited
p6179
aVmartinezluis
p6180
aVChicago_now
p6181
aVanyimeng
p6182
aVMindcronBnglr
p6183
aVDLGreenfield
p6184
aVnicetchman
p6185
aVbybarty
p6186
aVGuanglei_XU
p6187
aVwindycitizen
p6188
aVJGMA_architects
p6189
aVGLSC2016
p6190
aVKashifUddin1
p6191
aVniczito
p6192
aVouraliah
p6193
aVbharathelango1
p6194
aVMidwestMotown
p6195
aVdenaanddena
p6196
aVCharlieJia
p6197
aVStevvie
p6198
aVNahmodLaw
p6199
aVarunkant4pro
p6200
aVBiobulletin
p6201
aVJaimeSBanuelos
p6202
aVidpryan
p6203
aVIitPs
p6204
aVChandraHome2013
p6205
aVlaurendrandorff
p6206
aVBestWesternReal
p6207
aVNewFurama
p6208
aVlisagandy_ai
p6209
aVExecAssist1029
p6210
aVSPSCC_ISS
p6211
aVbridget_vaughn
p6212
aVIrishAntagonist
p6213
aVKwadwoAnane1
p6214
aVgchirag2
p6215
aVghrdc
p6216
aViacsjobfair
p6217
aVSpicyQube
p6218
aVEurekatory
p6219
aVBobMihelich50
p6220
aVAshishBamnia
p6221
aVwightco
p6222
aVEventsReno
p6223
aVJolenaswl
p6224
aVmanojdattu
p6225
aVCliftonMuhammad
p6226
aVNandini74993456
p6227
aVSUNILKUMARSIRJI
p6228
aVKshitij_Edu_Ind
p6229
aVsakshipandey02
p6230
aVsunnyrkg
p6231
aVSheenaVEnriquez
p6232
aVoneindiastudy
p6233
aVmilinpaul
p6234
aVsrodrig5
p6235
aVManoj_Varma_P
p6236
aVrkpsir
p6237
aVchubbrock29
p6238
aVPeterDuffin
p6239
aVanranzejing
p6240
aVTheClockNews
p6241
aVIgnacioPRico
p6242
aVquitee11
p6243
aVKendraSveum
p6244
aVtracy_karpinski
p6245
aVUHouston
p6246
aVeveryblock
p6247
aVSaswata1995
p6248
aVArcMail
p6249
aVammav508
p6250
aVMaecheri
p6251
aVrohitshorya1
p6252
aVkunalkumar00000
p6253
aVnoe_paijo
p6254
aVfira_ziza
p6255
aVGusBus3799
p6256
aVNiranjanpande9
p6257
aVJagiJXJ182
p6258
aVLiliaChacon
p6259
aVMOH_HAMED8888
p6260
aVPALSatWork
p6261
aVJOKEPAL
p6262
aVdey96981101
p6263
aVIemsumit
p6264
aVsumitsharma388
p6265
aVsakthivengadesh
p6266
aVLotonoro
p6267
aV100100058Monica
p6268
aVKhushsingh96
p6269
aVashutoshkumart6
p6270
aVagavesouth
p6271
aVravivekanand
p6272
aVsands425
p6273
aViit_apa
p6274
aVcementhard
p6275
aVbmrubin
p6276
aV_timlee
p6277
aVsagargaikwadjnv
p6278
aVvinothini_cse
p6279
aVkartikshah283
p6280
aVpanache014
p6281
aVtieokajima
p6282
aVzerotranquility
p6283
aVTLuvaLuva
p6284
aVrdinagar
p6285
aVPLTWMidwest
p6286
aVCollegePreneurs
p6287
aVNCSEonline
p6288
aVMSFTChicago
p6289
aVtomrck_nr
p6290
aVvincico
p6291
aVatlista1
p6292
aVjaylent4
p6293
aVEWBUSAIIT
p6294
aVhairstonfail
p6295
aVGAURAVCH2
p6296
aVKZamoyski
p6297
aVprettybabe2015
p6298
aVSnehatiwari21
p6299
aVdgaauw
p6300
aViAkashRathod
p6301
aVPrasantKarn1
p6302
aVyzhou1990
p6303
aVIITHackathon
p6304
aVSanjeev__Shukla
p6305
aVabhishukla4630
p6306
aVSheaThePineCone
p6307
aVCreativeElctron
p6308
aVxkzeroJulie
p6309
aVshimercollege
p6310
aVrdjayanthi
p6311
aVdi_hu
p6312
aVvishwajith1
p6313
aVniuzihan
p6314
aVbbmykal
p6315
aVSpar_10
p6316
aVNarayaniites
p6317
aVSLCE_UW
p6318
aVjaga_prasad
p6319
aVDanTheMan8555
p6320
aVArchitekt2
p6321
aVfaxmachine1270
p6322
aVsanrimisafiri
p6323
aVKellyKonk
p6324
aVJainAnji
p6325
aVSWAROOPNC100
p6326
aV777VJ
p6327
aVhaneen_sweis
p6328
aVJordanMartz
p6329
aVAgirlIitian
p6330
aVYoo_Pearl
p6331
aVBrevoBricks
p6332
aVstevenmarcusmur
p6333
aVformmagazine
p6334
aV2COMS_Career
p6335
aVHongleiL
p6336
aVJohnson_Kevin2
p6337
aVmari_fer0193
p6338
aVAapRaga
p6339
aVLambda_Hacker
p6340
aVubiquity75
p6341
aVashish_ksharma
p6342
aVyuykevin
p6343
aVRuiJasonCui
p6344
aVsanjay11896
p6345
aVjangir_ash
p6346
aVrnadira
p6347
aVgreatgaurav1
p6348
aVScholarsAtRisk
p6349
aVdlsANL
p6350
aVrinijannati
p6351
aVaryasaurav25
p6352
aVamitkumargulat1
p6353
aVarce007
p6354
aVWMPUtilities
p6355
aVindigointeract
p6356
aV2011kumar786
p6357
aVsupernirmesh
p6358
aVSaryHallack
p6359
aVChicagoEDT
p6360
aVakramabouzied
p6361
aVspecialKevin
p6362
aVmel_daily
p6363
aVBuddhistBob
p6364
aVNidhiSubs
p6365
aVk_beckk
p6366
aVaecAmritaSingh
p6367
aVmblack47
p6368
aVlwoods531
p6369
aVthatwhitecolour
p6370
aVNews_Chicago_IL
p6371
aVamiesrikanth
p6372
aVthetg
p6373
aViiTBusch
p6374
aVcpgr80
p6375
aVAesellers11
p6376
aVsachinrajwal
p6377
aVsai_378
p6378
aVIITSOAR_Egle
p6379
aVclaytondaher16
p6380
aVComp_Inst
p6381
aVFlorenmichmach
p6382
aVRamonJorgeT
p6383
aVaakidatta
p6384
aVjdgershbein
p6385
aVsiddharthjais14
p6386
aVloganjaffe
p6387
aVPollittMitchell
p6388
aVNenadTadic4
p6389
aVjohnson_teena
p6390
aVTechnoInBites
p6391
aVamg9986
p6392
aVConteChicago
p6393
aVNicolaSumerano
p6394
aVrshra
p6395
aVnic_msu_2001
p6396
aVTISS_Forum
p6397
aVpmazidi
p6398
aVIITRockstar
p6399
aVAlinSukey
p6400
aVZhefuCc
p6401
aVManashjyotidek6
p6402
aVstephenfgrove
p6403
aVakchinta
p6404
aVCaptainMaxCat
p6405
aVTpatni
p6406
aVJOYTHISH
p6407
aVChiChamberCEO
p6408
aVtfetimes
p6409
aVMADCADcom
p6410
aVravikumar88332
p6411
aVInvasionist007
p6412
aVevasemark
p6413
aVsolversa
p6414
aVETIGlobal
p6415
aVsavetheramova
p6416
aVedithuddle
p6417
aVpacoleon11
p6418
aVFotoQmola
p6419
aVkitaabmarket
p6420
aVssudheer698
p6421
aVRobertGroves
p6422
aVbrobandillinois
p6423
aVlancerp
p6424
aVSohelRangrez
p6425
aVshahnawaz_shan
p6426
aVagefugitive
p6427
aVJCrispinoSIG
p6428
aVWoodrowWilsonTF
p6429
aVdoanhoangthai
p6430
aVrockparth12
p6431
aVboran192
p6432
aVMahsA_Eng
p6433
aVTheBindaasBaba
p6434
aVPanIIT1
p6435
aVvonagreko
p6436
aVdollbedmaker
p6437
aVjack_busby
p6438
aVlsweers
p6439
aVKristiDula
p6440
aVNithin_S_Das
p6441
aVHerisland
p6442
aVlilotalk
p6443
aVdavidhoffmanca
p6444
aVChiTownTamale
p6445
aVlipakshi5
p6446
aVbarelakash
p6447
aVkaivalyac
p6448
aVIItian_Miraj
p6449
aVAamirShaw
p6450
aVPoonamBabruwad
p6451
aVCody_mer
p6452
aVerodrig7
p6453
aViitubf
p6454
aVSudosudhanshu
p6455
aVsrini_dk
p6456
aVWILLATKINSON3rd
p6457
aVkumarsujeet899
p6458
aVshortyawards
p6459
aVGANDHIVIVEK4
p6460
aVGlobalHHA
p6461
aVLadypdj
p6462
aVAgrigum
p6463
aVBeALonghorn
p6464
aVtonglaoshi
p6465
aVCEA_Fest_IITM
p6466
aVEdUSABrasilia
p6467
aVcareer_thoughts
p6468
aVmandyxu2010
p6469
aVfdagnew
p6470
aVluigip720
p6471
aVWkauffiit
p6472
aVChicago_Places
p6473
aVNickBensonZA
p6474
aVKD__10
p6475
aVMunozMatthew
p6476
aVadi12962070
p6477
aVColonialLifeCHI
p6478
aVEktaDogra
p6479
aVrentabikegoa
p6480
aVUSA_Logistics
p6481
aVKim_EnergyJobs
p6482
aVrashijain124a
p6483
aVCoachSchweer
p6484
aVInfiniteTng
p6485
aVMelkorEru
p6486
aVjayvyas13
p6487
aVkristinbarrett
p6488
aVradillence
p6489
aVPieceOfShib
p6490
aVloomlearning
p6491
aVSarahLKentner
p6492
aVALittleBitOHome
p6493
aVAnoopJ1996
p6494
aVggrisot
p6495
aVUni_Search
p6496
aVamericanacad
p6497
aVsachindixit99
p6498
aVHeatherFlux
p6499
aVSandbergDD
p6500
aVdharoalo
p6501
aVDorisnavarro_22
p6502
aVKevZheng
p6503
aVA2JAuthor
p6504
aVsafelyfiled
p6505
aVCSTmirage
p6506
aVsundharamsakthi
p6507
aVphredearth
p6508
aVresonanceabad
p6509
aVwinningticket
p6510
aVarq_wilfredo
p6511
aVajohnson11onu
p6512
aVStudentAdvisor
p6513
aVkaka3stan
p6514
aVambartuce
p6515
aVpilipalahongtai
p6516
aVAjvinderSaini
p6517
aVcmbuzard
p6518
aVOdysseyChicago
p6519
aVMGarg2305
p6520
aVbtjahjono_t
p6521
aVBrettOmmen
p6522
aVGregStaskowski
p6523
aVPrathamNawal
p6524
aVLitonlaskar
p6525
aVatelierdrome
p6526
aVBrubeck_Inst
p6527
aVsedrabnivag
p6528
aVBOMAChicago
p6529
aVangel2abe
p6530
aVauro200
p6531
aVoptimadchglobal
p6532
aVMagdyMohamed93
p6533
aVecon_progress
p6534
aVPbNnojace
p6535
aVrushinalive
p6536
aVSirGeeOoh
p6537
aVrockiitd2014
p6538
aVjavier_ci
p6539
aVmohitchittora98
p6540
aVanupraaj
p6541
aVpappol
p6542
aVCHANGEIL
p6543
aVsanishaikh5
p6544
aVHaleyDhara
p6545
aVSIMsmartUSA
p6546
aVShoeBarNo
p6547
aVtheenergytimes
p6548
aVhongyiyu34
p6549
aValumniattitudes
p6550
aVGlobalUGRADWL
p6551
aVLaurenMilano
p6552
aVIITSOAR_Vanlim
p6553
aVsathbhai
p6554
aVqamed1
p6555
aVESkid1121
p6556
aVGLAMIIT
p6557
aVsandersbrand
p6558
aVtobydick1
p6559
aVhardhathub
p6560
aVrahulrathee2
p6561
aVedUSAguayaquil
p6562
aVarchanausa0
p6563
aVasinha
p6564
aVathangeolas
p6565
aVhimanshukumarg8
p6566
atp6567
Rp6568
.